
ECE_395.elf:     file format elf32-littlearm

Sections:
Idx Name          Size      VMA       LMA       File off  Algn
  0 .isr_vector   000000c0  08000000  08000000  00001000  2**0
                  CONTENTS, ALLOC, LOAD, READONLY, DATA
  1 .text         00001fa4  080000c0  080000c0  000010c0  2**2
                  CONTENTS, ALLOC, LOAD, READONLY, CODE
  2 .rodata       0000001c  08002064  08002064  00003064  2**2
                  CONTENTS, ALLOC, LOAD, READONLY, DATA
  3 .ARM.extab    00000000  08002080  08002080  0000400c  2**0
                  CONTENTS, READONLY
  4 .ARM          00000000  08002080  08002080  0000400c  2**0
                  CONTENTS, READONLY
  5 .preinit_array 00000000  08002080  08002080  0000400c  2**0
                  CONTENTS, ALLOC, LOAD, DATA
  6 .init_array   00000004  08002080  08002080  00003080  2**2
                  CONTENTS, ALLOC, LOAD, READONLY, DATA
  7 .fini_array   00000004  08002084  08002084  00003084  2**2
                  CONTENTS, ALLOC, LOAD, READONLY, DATA
  8 .data         0000000c  20000000  08002088  00004000  2**2
                  CONTENTS, ALLOC, LOAD, DATA
  9 .bss          0000007c  2000000c  08002094  0000400c  2**2
                  ALLOC
 10 ._user_heap_stack 00000600  20000088  08002094  00004088  2**0
                  ALLOC
 11 .ARM.attributes 00000028  00000000  00000000  0000400c  2**0
                  CONTENTS, READONLY
 12 .debug_info   00004b31  00000000  00000000  00004034  2**0
                  CONTENTS, READONLY, DEBUGGING, OCTETS
 13 .debug_abbrev 00001334  00000000  00000000  00008b65  2**0
                  CONTENTS, READONLY, DEBUGGING, OCTETS
 14 .debug_aranges 00000500  00000000  00000000  00009ea0  2**3
                  CONTENTS, READONLY, DEBUGGING, OCTETS
 15 .debug_rnglists 000003a8  00000000  00000000  0000a3a0  2**0
                  CONTENTS, READONLY, DEBUGGING, OCTETS
 16 .debug_macro  0000fe8b  00000000  00000000  0000a748  2**0
                  CONTENTS, READONLY, DEBUGGING, OCTETS
 17 .debug_line   000060f8  00000000  00000000  0001a5d3  2**0
                  CONTENTS, READONLY, DEBUGGING, OCTETS
 18 .debug_str    00061001  00000000  00000000  000206cb  2**0
                  CONTENTS, READONLY, DEBUGGING, OCTETS
 19 .comment      00000043  00000000  00000000  000816cc  2**0
                  CONTENTS, READONLY
 20 .debug_frame  0000101c  00000000  00000000  00081710  2**2
                  CONTENTS, READONLY, DEBUGGING, OCTETS
 21 .debug_line_str 0000005a  00000000  00000000  0008272c  2**0
                  CONTENTS, READONLY, DEBUGGING, OCTETS

Disassembly of section .text:

080000c0 <__do_global_dtors_aux>:
 80000c0:	b510      	push	{r4, lr}
 80000c2:	4c06      	ldr	r4, [pc, #24]	@ (80000dc <__do_global_dtors_aux+0x1c>)
 80000c4:	7823      	ldrb	r3, [r4, #0]
 80000c6:	2b00      	cmp	r3, #0
 80000c8:	d107      	bne.n	80000da <__do_global_dtors_aux+0x1a>
 80000ca:	4b05      	ldr	r3, [pc, #20]	@ (80000e0 <__do_global_dtors_aux+0x20>)
 80000cc:	2b00      	cmp	r3, #0
 80000ce:	d002      	beq.n	80000d6 <__do_global_dtors_aux+0x16>
 80000d0:	4804      	ldr	r0, [pc, #16]	@ (80000e4 <__do_global_dtors_aux+0x24>)
 80000d2:	e000      	b.n	80000d6 <__do_global_dtors_aux+0x16>
 80000d4:	bf00      	nop
 80000d6:	2301      	movs	r3, #1
 80000d8:	7023      	strb	r3, [r4, #0]
 80000da:	bd10      	pop	{r4, pc}
 80000dc:	2000000c 	.word	0x2000000c
 80000e0:	00000000 	.word	0x00000000
 80000e4:	0800204c 	.word	0x0800204c

080000e8 <frame_dummy>:
 80000e8:	4b04      	ldr	r3, [pc, #16]	@ (80000fc <frame_dummy+0x14>)
 80000ea:	b510      	push	{r4, lr}
 80000ec:	2b00      	cmp	r3, #0
 80000ee:	d003      	beq.n	80000f8 <frame_dummy+0x10>
 80000f0:	4903      	ldr	r1, [pc, #12]	@ (8000100 <frame_dummy+0x18>)
 80000f2:	4804      	ldr	r0, [pc, #16]	@ (8000104 <frame_dummy+0x1c>)
 80000f4:	e000      	b.n	80000f8 <frame_dummy+0x10>
 80000f6:	bf00      	nop
 80000f8:	bd10      	pop	{r4, pc}
 80000fa:	46c0      	nop			@ (mov r8, r8)
 80000fc:	00000000 	.word	0x00000000
 8000100:	20000010 	.word	0x20000010
 8000104:	0800204c 	.word	0x0800204c

08000108 <__udivsi3>:
 8000108:	2200      	movs	r2, #0
 800010a:	0843      	lsrs	r3, r0, #1
 800010c:	428b      	cmp	r3, r1
 800010e:	d374      	bcc.n	80001fa <__udivsi3+0xf2>
 8000110:	0903      	lsrs	r3, r0, #4
 8000112:	428b      	cmp	r3, r1
 8000114:	d35f      	bcc.n	80001d6 <__udivsi3+0xce>
 8000116:	0a03      	lsrs	r3, r0, #8
 8000118:	428b      	cmp	r3, r1
 800011a:	d344      	bcc.n	80001a6 <__udivsi3+0x9e>
 800011c:	0b03      	lsrs	r3, r0, #12
 800011e:	428b      	cmp	r3, r1
 8000120:	d328      	bcc.n	8000174 <__udivsi3+0x6c>
 8000122:	0c03      	lsrs	r3, r0, #16
 8000124:	428b      	cmp	r3, r1
 8000126:	d30d      	bcc.n	8000144 <__udivsi3+0x3c>
 8000128:	22ff      	movs	r2, #255	@ 0xff
 800012a:	0209      	lsls	r1, r1, #8
 800012c:	ba12      	rev	r2, r2
 800012e:	0c03      	lsrs	r3, r0, #16
 8000130:	428b      	cmp	r3, r1
 8000132:	d302      	bcc.n	800013a <__udivsi3+0x32>
 8000134:	1212      	asrs	r2, r2, #8
 8000136:	0209      	lsls	r1, r1, #8
 8000138:	d065      	beq.n	8000206 <__udivsi3+0xfe>
 800013a:	0b03      	lsrs	r3, r0, #12
 800013c:	428b      	cmp	r3, r1
 800013e:	d319      	bcc.n	8000174 <__udivsi3+0x6c>
 8000140:	e000      	b.n	8000144 <__udivsi3+0x3c>
 8000142:	0a09      	lsrs	r1, r1, #8
 8000144:	0bc3      	lsrs	r3, r0, #15
 8000146:	428b      	cmp	r3, r1
 8000148:	d301      	bcc.n	800014e <__udivsi3+0x46>
 800014a:	03cb      	lsls	r3, r1, #15
 800014c:	1ac0      	subs	r0, r0, r3
 800014e:	4152      	adcs	r2, r2
 8000150:	0b83      	lsrs	r3, r0, #14
 8000152:	428b      	cmp	r3, r1
 8000154:	d301      	bcc.n	800015a <__udivsi3+0x52>
 8000156:	038b      	lsls	r3, r1, #14
 8000158:	1ac0      	subs	r0, r0, r3
 800015a:	4152      	adcs	r2, r2
 800015c:	0b43      	lsrs	r3, r0, #13
 800015e:	428b      	cmp	r3, r1
 8000160:	d301      	bcc.n	8000166 <__udivsi3+0x5e>
 8000162:	034b      	lsls	r3, r1, #13
 8000164:	1ac0      	subs	r0, r0, r3
 8000166:	4152      	adcs	r2, r2
 8000168:	0b03      	lsrs	r3, r0, #12
 800016a:	428b      	cmp	r3, r1
 800016c:	d301      	bcc.n	8000172 <__udivsi3+0x6a>
 800016e:	030b      	lsls	r3, r1, #12
 8000170:	1ac0      	subs	r0, r0, r3
 8000172:	4152      	adcs	r2, r2
 8000174:	0ac3      	lsrs	r3, r0, #11
 8000176:	428b      	cmp	r3, r1
 8000178:	d301      	bcc.n	800017e <__udivsi3+0x76>
 800017a:	02cb      	lsls	r3, r1, #11
 800017c:	1ac0      	subs	r0, r0, r3
 800017e:	4152      	adcs	r2, r2
 8000180:	0a83      	lsrs	r3, r0, #10
 8000182:	428b      	cmp	r3, r1
 8000184:	d301      	bcc.n	800018a <__udivsi3+0x82>
 8000186:	028b      	lsls	r3, r1, #10
 8000188:	1ac0      	subs	r0, r0, r3
 800018a:	4152      	adcs	r2, r2
 800018c:	0a43      	lsrs	r3, r0, #9
 800018e:	428b      	cmp	r3, r1
 8000190:	d301      	bcc.n	8000196 <__udivsi3+0x8e>
 8000192:	024b      	lsls	r3, r1, #9
 8000194:	1ac0      	subs	r0, r0, r3
 8000196:	4152      	adcs	r2, r2
 8000198:	0a03      	lsrs	r3, r0, #8
 800019a:	428b      	cmp	r3, r1
 800019c:	d301      	bcc.n	80001a2 <__udivsi3+0x9a>
 800019e:	020b      	lsls	r3, r1, #8
 80001a0:	1ac0      	subs	r0, r0, r3
 80001a2:	4152      	adcs	r2, r2
 80001a4:	d2cd      	bcs.n	8000142 <__udivsi3+0x3a>
 80001a6:	09c3      	lsrs	r3, r0, #7
 80001a8:	428b      	cmp	r3, r1
 80001aa:	d301      	bcc.n	80001b0 <__udivsi3+0xa8>
 80001ac:	01cb      	lsls	r3, r1, #7
 80001ae:	1ac0      	subs	r0, r0, r3
 80001b0:	4152      	adcs	r2, r2
 80001b2:	0983      	lsrs	r3, r0, #6
 80001b4:	428b      	cmp	r3, r1
 80001b6:	d301      	bcc.n	80001bc <__udivsi3+0xb4>
 80001b8:	018b      	lsls	r3, r1, #6
 80001ba:	1ac0      	subs	r0, r0, r3
 80001bc:	4152      	adcs	r2, r2
 80001be:	0943      	lsrs	r3, r0, #5
 80001c0:	428b      	cmp	r3, r1
 80001c2:	d301      	bcc.n	80001c8 <__udivsi3+0xc0>
 80001c4:	014b      	lsls	r3, r1, #5
 80001c6:	1ac0      	subs	r0, r0, r3
 80001c8:	4152      	adcs	r2, r2
 80001ca:	0903      	lsrs	r3, r0, #4
 80001cc:	428b      	cmp	r3, r1
 80001ce:	d301      	bcc.n	80001d4 <__udivsi3+0xcc>
 80001d0:	010b      	lsls	r3, r1, #4
 80001d2:	1ac0      	subs	r0, r0, r3
 80001d4:	4152      	adcs	r2, r2
 80001d6:	08c3      	lsrs	r3, r0, #3
 80001d8:	428b      	cmp	r3, r1
 80001da:	d301      	bcc.n	80001e0 <__udivsi3+0xd8>
 80001dc:	00cb      	lsls	r3, r1, #3
 80001de:	1ac0      	subs	r0, r0, r3
 80001e0:	4152      	adcs	r2, r2
 80001e2:	0883      	lsrs	r3, r0, #2
 80001e4:	428b      	cmp	r3, r1
 80001e6:	d301      	bcc.n	80001ec <__udivsi3+0xe4>
 80001e8:	008b      	lsls	r3, r1, #2
 80001ea:	1ac0      	subs	r0, r0, r3
 80001ec:	4152      	adcs	r2, r2
 80001ee:	0843      	lsrs	r3, r0, #1
 80001f0:	428b      	cmp	r3, r1
 80001f2:	d301      	bcc.n	80001f8 <__udivsi3+0xf0>
 80001f4:	004b      	lsls	r3, r1, #1
 80001f6:	1ac0      	subs	r0, r0, r3
 80001f8:	4152      	adcs	r2, r2
 80001fa:	1a41      	subs	r1, r0, r1
 80001fc:	d200      	bcs.n	8000200 <__udivsi3+0xf8>
 80001fe:	4601      	mov	r1, r0
 8000200:	4152      	adcs	r2, r2
 8000202:	4610      	mov	r0, r2
 8000204:	4770      	bx	lr
 8000206:	e7ff      	b.n	8000208 <__udivsi3+0x100>
 8000208:	b501      	push	{r0, lr}
 800020a:	2000      	movs	r0, #0
 800020c:	f000 f806 	bl	800021c <__aeabi_idiv0>
 8000210:	bd02      	pop	{r1, pc}
 8000212:	46c0      	nop			@ (mov r8, r8)

08000214 <__aeabi_uidivmod>:
 8000214:	2900      	cmp	r1, #0
 8000216:	d0f7      	beq.n	8000208 <__udivsi3+0x100>
 8000218:	e776      	b.n	8000108 <__udivsi3>
 800021a:	4770      	bx	lr

0800021c <__aeabi_idiv0>:
 800021c:	4770      	bx	lr
 800021e:	46c0      	nop			@ (mov r8, r8)

08000220 <main>:
/**
  * @brief  The application entry point.
  * @retval int
  */
int main(void)
{
 8000220:	b590      	push	{r4, r7, lr}
 8000222:	b083      	sub	sp, #12
 8000224:	af00      	add	r7, sp, #0

  /* USER CODE BEGIN 1 */
  uint16_t adc_value = 0;
 8000226:	1dbb      	adds	r3, r7, #6
 8000228:	2200      	movs	r2, #0
 800022a:	801a      	strh	r2, [r3, #0]
  /* USER CODE END 1 */

  /* MCU Configuration--------------------------------------------------------*/

  /* Reset of all peripherals, Initializes the Flash interface and the Systick. */
  HAL_Init();
 800022c:	f000 f9d8 	bl	80005e0 <HAL_Init>
  /* USER CODE BEGIN Init */

  /* USER CODE END Init */

  /* Configure the system clock */
  SystemClock_Config();
 8000230:	f000 f826 	bl	8000280 <SystemClock_Config>
  /* USER CODE BEGIN SysInit */

  /* USER CODE END SysInit */

  /* Initialize all configured peripherals */
  MX_GPIO_Init();
 8000234:	f000 f8dc 	bl	80003f0 <MX_GPIO_Init>
  MX_ADC_Init();
 8000238:	f000 f876 	bl	8000328 <MX_ADC_Init>
  /* USER CODE BEGIN 2 */
  HAL_ADCEx_Calibration_Start(&hadc, ADC_SINGLE_ENDED);
 800023c:	4b0f      	ldr	r3, [pc, #60]	@ (800027c <main+0x5c>)
 800023e:	2100      	movs	r1, #0
 8000240:	0018      	movs	r0, r3
 8000242:	f000 feaf 	bl	8000fa4 <HAL_ADCEx_Calibration_Start>

  /* Infinite loop */
  /* USER CODE BEGIN WHILE */
  while (1)
  {
    adc_value = Read_ADC();
 8000246:	1dbc      	adds	r4, r7, #6
 8000248:	f000 f908 	bl	800045c <Read_ADC>
 800024c:	0003      	movs	r3, r0
 800024e:	8023      	strh	r3, [r4, #0]

    if (adc_value >= THRESHOLD_ADC_VALUE)
 8000250:	1dbb      	adds	r3, r7, #6
 8000252:	881a      	ldrh	r2, [r3, #0]
 8000254:	239b      	movs	r3, #155	@ 0x9b
 8000256:	011b      	lsls	r3, r3, #4
 8000258:	429a      	cmp	r2, r3
 800025a:	d907      	bls.n	800026c <main+0x4c>
    {
      HAL_GPIO_WritePin(GPIOA, GPIO_PIN_1, GPIO_PIN_SET);
 800025c:	23a0      	movs	r3, #160	@ 0xa0
 800025e:	05db      	lsls	r3, r3, #23
 8000260:	2201      	movs	r2, #1
 8000262:	2102      	movs	r1, #2
 8000264:	0018      	movs	r0, r3
 8000266:	f001 f95d 	bl	8001524 <HAL_GPIO_WritePin>
 800026a:	e7ec      	b.n	8000246 <main+0x26>
    }
    else
    {
      HAL_GPIO_WritePin(GPIOA, GPIO_PIN_1, GPIO_PIN_RESET);
 800026c:	23a0      	movs	r3, #160	@ 0xa0
 800026e:	05db      	lsls	r3, r3, #23
 8000270:	2200      	movs	r2, #0
 8000272:	2102      	movs	r1, #2
 8000274:	0018      	movs	r0, r3
 8000276:	f001 f955 	bl	8001524 <HAL_GPIO_WritePin>
    adc_value = Read_ADC();
 800027a:	e7e4      	b.n	8000246 <main+0x26>
 800027c:	20000028 	.word	0x20000028

08000280 <SystemClock_Config>:
/**
  * @brief System Clock Configuration
  * @retval None
  */
void SystemClock_Config(void)
{
 8000280:	b590      	push	{r4, r7, lr}
 8000282:	b093      	sub	sp, #76	@ 0x4c
 8000284:	af00      	add	r7, sp, #0
  RCC_OscInitTypeDef RCC_OscInitStruct = {0};
 8000286:	2414      	movs	r4, #20
 8000288:	193b      	adds	r3, r7, r4
 800028a:	0018      	movs	r0, r3
 800028c:	2334      	movs	r3, #52	@ 0x34
 800028e:	001a      	movs	r2, r3
 8000290:	2100      	movs	r1, #0
 8000292:	f001 feaf 	bl	8001ff4 <memset>
  RCC_ClkInitTypeDef RCC_ClkInitStruct = {0};
 8000296:	003b      	movs	r3, r7
 8000298:	0018      	movs	r0, r3
 800029a:	2314      	movs	r3, #20
 800029c:	001a      	movs	r2, r3
 800029e:	2100      	movs	r1, #0
 80002a0:	f001 fea8 	bl	8001ff4 <memset>

  /** Configure the main internal regulator output voltage
  */
  __HAL_PWR_VOLTAGESCALING_CONFIG(PWR_REGULATOR_VOLTAGE_SCALE1);
 80002a4:	4b1e      	ldr	r3, [pc, #120]	@ (8000320 <SystemClock_Config+0xa0>)
 80002a6:	681b      	ldr	r3, [r3, #0]
 80002a8:	4a1e      	ldr	r2, [pc, #120]	@ (8000324 <SystemClock_Config+0xa4>)
 80002aa:	401a      	ands	r2, r3
 80002ac:	4b1c      	ldr	r3, [pc, #112]	@ (8000320 <SystemClock_Config+0xa0>)
 80002ae:	2180      	movs	r1, #128	@ 0x80
 80002b0:	0109      	lsls	r1, r1, #4
 80002b2:	430a      	orrs	r2, r1
 80002b4:	601a      	str	r2, [r3, #0]

  /** Initializes the RCC Oscillators according to the specified parameters
  * in the RCC_OscInitTypeDef structure.
  */
  RCC_OscInitStruct.OscillatorType = RCC_OSCILLATORTYPE_MSI;
 80002b6:	0021      	movs	r1, r4
 80002b8:	187b      	adds	r3, r7, r1
 80002ba:	2210      	movs	r2, #16
 80002bc:	601a      	str	r2, [r3, #0]
  RCC_OscInitStruct.MSIState = RCC_MSI_ON;
 80002be:	187b      	adds	r3, r7, r1
 80002c0:	2201      	movs	r2, #1
 80002c2:	619a      	str	r2, [r3, #24]
  RCC_OscInitStruct.MSICalibrationValue = 0;
 80002c4:	187b      	adds	r3, r7, r1
 80002c6:	2200      	movs	r2, #0
 80002c8:	61da      	str	r2, [r3, #28]
  RCC_OscInitStruct.MSIClockRange = RCC_MSIRANGE_5;
 80002ca:	187b      	adds	r3, r7, r1
 80002cc:	22a0      	movs	r2, #160	@ 0xa0
 80002ce:	0212      	lsls	r2, r2, #8
 80002d0:	621a      	str	r2, [r3, #32]
  RCC_OscInitStruct.PLL.PLLState = RCC_PLL_NONE;
 80002d2:	187b      	adds	r3, r7, r1
 80002d4:	2200      	movs	r2, #0
 80002d6:	625a      	str	r2, [r3, #36]	@ 0x24
  if (HAL_RCC_OscConfig(&RCC_OscInitStruct) != HAL_OK)
 80002d8:	187b      	adds	r3, r7, r1
 80002da:	0018      	movs	r0, r3
 80002dc:	f001 f940 	bl	8001560 <HAL_RCC_OscConfig>
 80002e0:	1e03      	subs	r3, r0, #0
 80002e2:	d001      	beq.n	80002e8 <SystemClock_Config+0x68>
  {
    Error_Handler();
 80002e4:	f000 f8de 	bl	80004a4 <Error_Handler>
  }

  /** Initializes the CPU, AHB and APB buses clocks
  */
  RCC_ClkInitStruct.ClockType = RCC_CLOCKTYPE_HCLK|RCC_CLOCKTYPE_SYSCLK
 80002e8:	003b      	movs	r3, r7
 80002ea:	220f      	movs	r2, #15
 80002ec:	601a      	str	r2, [r3, #0]
                              |RCC_CLOCKTYPE_PCLK1|RCC_CLOCKTYPE_PCLK2;
  RCC_ClkInitStruct.SYSCLKSource = RCC_SYSCLKSOURCE_MSI;
 80002ee:	003b      	movs	r3, r7
 80002f0:	2200      	movs	r2, #0
 80002f2:	605a      	str	r2, [r3, #4]
  RCC_ClkInitStruct.AHBCLKDivider = RCC_SYSCLK_DIV1;
 80002f4:	003b      	movs	r3, r7
 80002f6:	2200      	movs	r2, #0
 80002f8:	609a      	str	r2, [r3, #8]
  RCC_ClkInitStruct.APB1CLKDivider = RCC_HCLK_DIV1;
 80002fa:	003b      	movs	r3, r7
 80002fc:	2200      	movs	r2, #0
 80002fe:	60da      	str	r2, [r3, #12]
  RCC_ClkInitStruct.APB2CLKDivider = RCC_HCLK_DIV1;
 8000300:	003b      	movs	r3, r7
 8000302:	2200      	movs	r2, #0
 8000304:	611a      	str	r2, [r3, #16]

  if (HAL_RCC_ClockConfig(&RCC_ClkInitStruct, FLASH_LATENCY_0) != HAL_OK)
 8000306:	003b      	movs	r3, r7
 8000308:	2100      	movs	r1, #0
 800030a:	0018      	movs	r0, r3
 800030c:	f001 fca4 	bl	8001c58 <HAL_RCC_ClockConfig>
 8000310:	1e03      	subs	r3, r0, #0
 8000312:	d001      	beq.n	8000318 <SystemClock_Config+0x98>
  {
    Error_Handler();
 8000314:	f000 f8c6 	bl	80004a4 <Error_Handler>
  }
}
 8000318:	46c0      	nop			@ (mov r8, r8)
 800031a:	46bd      	mov	sp, r7
 800031c:	b013      	add	sp, #76	@ 0x4c
 800031e:	bd90      	pop	{r4, r7, pc}
 8000320:	40007000 	.word	0x40007000
 8000324:	ffffe7ff 	.word	0xffffe7ff

08000328 <MX_ADC_Init>:
  * @brief ADC Initialization Function
  * @param None
  * @retval None
  */
static void MX_ADC_Init(void)
{
 8000328:	b580      	push	{r7, lr}
 800032a:	b082      	sub	sp, #8
 800032c:	af00      	add	r7, sp, #0

  /* USER CODE BEGIN ADC_Init 0 */

  /* USER CODE END ADC_Init 0 */

  ADC_ChannelConfTypeDef sConfig = {0};
 800032e:	003b      	movs	r3, r7
 8000330:	0018      	movs	r0, r3
 8000332:	2308      	movs	r3, #8
 8000334:	001a      	movs	r2, r3
 8000336:	2100      	movs	r1, #0
 8000338:	f001 fe5c 	bl	8001ff4 <memset>

  /* USER CODE END ADC_Init 1 */

  /** Configure the global features of the ADC (Clock, Resolution, Data Alignment and number of conversion)
  */
  hadc.Instance = ADC1;
 800033c:	4b2a      	ldr	r3, [pc, #168]	@ (80003e8 <MX_ADC_Init+0xc0>)
 800033e:	4a2b      	ldr	r2, [pc, #172]	@ (80003ec <MX_ADC_Init+0xc4>)
 8000340:	601a      	str	r2, [r3, #0]
  hadc.Init.OversamplingMode = DISABLE;
 8000342:	4b29      	ldr	r3, [pc, #164]	@ (80003e8 <MX_ADC_Init+0xc0>)
 8000344:	2200      	movs	r2, #0
 8000346:	63da      	str	r2, [r3, #60]	@ 0x3c
  hadc.Init.ClockPrescaler = ADC_CLOCK_SYNC_PCLK_DIV1;
 8000348:	4b27      	ldr	r3, [pc, #156]	@ (80003e8 <MX_ADC_Init+0xc0>)
 800034a:	22c0      	movs	r2, #192	@ 0xc0
 800034c:	0612      	lsls	r2, r2, #24
 800034e:	605a      	str	r2, [r3, #4]
  hadc.Init.Resolution = ADC_RESOLUTION_12B;
 8000350:	4b25      	ldr	r3, [pc, #148]	@ (80003e8 <MX_ADC_Init+0xc0>)
 8000352:	2200      	movs	r2, #0
 8000354:	609a      	str	r2, [r3, #8]
  hadc.Init.SamplingTime = ADC_SAMPLETIME_1CYCLE_5;
 8000356:	4b24      	ldr	r3, [pc, #144]	@ (80003e8 <MX_ADC_Init+0xc0>)
 8000358:	2200      	movs	r2, #0
 800035a:	639a      	str	r2, [r3, #56]	@ 0x38
  hadc.Init.ScanConvMode = ADC_SCAN_DIRECTION_FORWARD;
 800035c:	4b22      	ldr	r3, [pc, #136]	@ (80003e8 <MX_ADC_Init+0xc0>)
 800035e:	2201      	movs	r2, #1
 8000360:	611a      	str	r2, [r3, #16]
  hadc.Init.DataAlign = ADC_DATAALIGN_RIGHT;
 8000362:	4b21      	ldr	r3, [pc, #132]	@ (80003e8 <MX_ADC_Init+0xc0>)
 8000364:	2200      	movs	r2, #0
 8000366:	60da      	str	r2, [r3, #12]
  hadc.Init.ContinuousConvMode = DISABLE;
 8000368:	4b1f      	ldr	r3, [pc, #124]	@ (80003e8 <MX_ADC_Init+0xc0>)
 800036a:	2220      	movs	r2, #32
 800036c:	2100      	movs	r1, #0
 800036e:	5499      	strb	r1, [r3, r2]
  hadc.Init.DiscontinuousConvMode = DISABLE;
 8000370:	4b1d      	ldr	r3, [pc, #116]	@ (80003e8 <MX_ADC_Init+0xc0>)
 8000372:	2221      	movs	r2, #33	@ 0x21
 8000374:	2100      	movs	r1, #0
 8000376:	5499      	strb	r1, [r3, r2]
  hadc.Init.ExternalTrigConvEdge = ADC_EXTERNALTRIGCONVEDGE_NONE;
 8000378:	4b1b      	ldr	r3, [pc, #108]	@ (80003e8 <MX_ADC_Init+0xc0>)
 800037a:	2200      	movs	r2, #0
 800037c:	629a      	str	r2, [r3, #40]	@ 0x28
  hadc.Init.ExternalTrigConv = ADC_SOFTWARE_START;
 800037e:	4b1a      	ldr	r3, [pc, #104]	@ (80003e8 <MX_ADC_Init+0xc0>)
 8000380:	22c2      	movs	r2, #194	@ 0xc2
 8000382:	32ff      	adds	r2, #255	@ 0xff
 8000384:	625a      	str	r2, [r3, #36]	@ 0x24
  hadc.Init.DMAContinuousRequests = DISABLE;
 8000386:	4b18      	ldr	r3, [pc, #96]	@ (80003e8 <MX_ADC_Init+0xc0>)
 8000388:	222c      	movs	r2, #44	@ 0x2c
 800038a:	2100      	movs	r1, #0
 800038c:	5499      	strb	r1, [r3, r2]
  hadc.Init.EOCSelection = ADC_EOC_SINGLE_CONV;
 800038e:	4b16      	ldr	r3, [pc, #88]	@ (80003e8 <MX_ADC_Init+0xc0>)
 8000390:	2204      	movs	r2, #4
 8000392:	615a      	str	r2, [r3, #20]
  hadc.Init.Overrun = ADC_OVR_DATA_PRESERVED;
 8000394:	4b14      	ldr	r3, [pc, #80]	@ (80003e8 <MX_ADC_Init+0xc0>)
 8000396:	2200      	movs	r2, #0
 8000398:	631a      	str	r2, [r3, #48]	@ 0x30
  hadc.Init.LowPowerAutoWait = DISABLE;
 800039a:	4b13      	ldr	r3, [pc, #76]	@ (80003e8 <MX_ADC_Init+0xc0>)
 800039c:	2200      	movs	r2, #0
 800039e:	619a      	str	r2, [r3, #24]
  hadc.Init.LowPowerFrequencyMode = ENABLE;
 80003a0:	4b11      	ldr	r3, [pc, #68]	@ (80003e8 <MX_ADC_Init+0xc0>)
 80003a2:	2201      	movs	r2, #1
 80003a4:	635a      	str	r2, [r3, #52]	@ 0x34
  hadc.Init.LowPowerAutoPowerOff = DISABLE;
 80003a6:	4b10      	ldr	r3, [pc, #64]	@ (80003e8 <MX_ADC_Init+0xc0>)
 80003a8:	2200      	movs	r2, #0
 80003aa:	61da      	str	r2, [r3, #28]
  if (HAL_ADC_Init(&hadc) != HAL_OK)
 80003ac:	4b0e      	ldr	r3, [pc, #56]	@ (80003e8 <MX_ADC_Init+0xc0>)
 80003ae:	0018      	movs	r0, r3
 80003b0:	f000 f986 	bl	80006c0 <HAL_ADC_Init>
 80003b4:	1e03      	subs	r3, r0, #0
 80003b6:	d001      	beq.n	80003bc <MX_ADC_Init+0x94>
  {
    Error_Handler();
 80003b8:	f000 f874 	bl	80004a4 <Error_Handler>
  }

  /** Configure for the selected ADC regular channel to be converted.
  */
  sConfig.Channel = ADC_CHANNEL_0;
 80003bc:	003b      	movs	r3, r7
 80003be:	2201      	movs	r2, #1
 80003c0:	601a      	str	r2, [r3, #0]
  sConfig.Rank = ADC_RANK_CHANNEL_NUMBER;
 80003c2:	003b      	movs	r3, r7
 80003c4:	2280      	movs	r2, #128	@ 0x80
 80003c6:	0152      	lsls	r2, r2, #5
 80003c8:	605a      	str	r2, [r3, #4]
  if (HAL_ADC_ConfigChannel(&hadc, &sConfig) != HAL_OK)
 80003ca:	003a      	movs	r2, r7
 80003cc:	4b06      	ldr	r3, [pc, #24]	@ (80003e8 <MX_ADC_Init+0xc0>)
 80003ce:	0011      	movs	r1, r2
 80003d0:	0018      	movs	r0, r3
 80003d2:	f000 fc25 	bl	8000c20 <HAL_ADC_ConfigChannel>
 80003d6:	1e03      	subs	r3, r0, #0
 80003d8:	d001      	beq.n	80003de <MX_ADC_Init+0xb6>
  {
    Error_Handler();
 80003da:	f000 f863 	bl	80004a4 <Error_Handler>
  }
  /* USER CODE BEGIN ADC_Init 2 */

  /* USER CODE END ADC_Init 2 */

}
 80003de:	46c0      	nop			@ (mov r8, r8)
 80003e0:	46bd      	mov	sp, r7
 80003e2:	b002      	add	sp, #8
 80003e4:	bd80      	pop	{r7, pc}
 80003e6:	46c0      	nop			@ (mov r8, r8)
 80003e8:	20000028 	.word	0x20000028
 80003ec:	40012400 	.word	0x40012400

080003f0 <MX_GPIO_Init>:
  * @brief GPIO Initialization Function
  * @param None
  * @retval None
  */
static void MX_GPIO_Init(void)
{
 80003f0:	b580      	push	{r7, lr}
 80003f2:	b086      	sub	sp, #24
 80003f4:	af00      	add	r7, sp, #0
  GPIO_InitTypeDef GPIO_InitStruct = {0};
 80003f6:	1d3b      	adds	r3, r7, #4
 80003f8:	0018      	movs	r0, r3
 80003fa:	2314      	movs	r3, #20
 80003fc:	001a      	movs	r2, r3
 80003fe:	2100      	movs	r1, #0
 8000400:	f001 fdf8 	bl	8001ff4 <memset>
  /* USER CODE BEGIN MX_GPIO_Init_1 */

  /* USER CODE END MX_GPIO_Init_1 */

  /* GPIO Ports Clock Enable */
  __HAL_RCC_GPIOA_CLK_ENABLE();
 8000404:	4b14      	ldr	r3, [pc, #80]	@ (8000458 <MX_GPIO_Init+0x68>)
 8000406:	6ada      	ldr	r2, [r3, #44]	@ 0x2c
 8000408:	4b13      	ldr	r3, [pc, #76]	@ (8000458 <MX_GPIO_Init+0x68>)
 800040a:	2101      	movs	r1, #1
 800040c:	430a      	orrs	r2, r1
 800040e:	62da      	str	r2, [r3, #44]	@ 0x2c
 8000410:	4b11      	ldr	r3, [pc, #68]	@ (8000458 <MX_GPIO_Init+0x68>)
 8000412:	6adb      	ldr	r3, [r3, #44]	@ 0x2c
 8000414:	2201      	movs	r2, #1
 8000416:	4013      	ands	r3, r2
 8000418:	603b      	str	r3, [r7, #0]
 800041a:	683b      	ldr	r3, [r7, #0]

  /*Configure GPIO pin Output Level */
  HAL_GPIO_WritePin(GPIOA, GPIO_PIN_1, GPIO_PIN_RESET);
 800041c:	23a0      	movs	r3, #160	@ 0xa0
 800041e:	05db      	lsls	r3, r3, #23
 8000420:	2200      	movs	r2, #0
 8000422:	2102      	movs	r1, #2
 8000424:	0018      	movs	r0, r3
 8000426:	f001 f87d 	bl	8001524 <HAL_GPIO_WritePin>

  /*Configure GPIO pin : PA1 */
  GPIO_InitStruct.Pin = GPIO_PIN_1;
 800042a:	1d3b      	adds	r3, r7, #4
 800042c:	2202      	movs	r2, #2
 800042e:	601a      	str	r2, [r3, #0]
  GPIO_InitStruct.Mode = GPIO_MODE_OUTPUT_PP;
 8000430:	1d3b      	adds	r3, r7, #4
 8000432:	2201      	movs	r2, #1
 8000434:	605a      	str	r2, [r3, #4]
  GPIO_InitStruct.Pull = GPIO_NOPULL;
 8000436:	1d3b      	adds	r3, r7, #4
 8000438:	2200      	movs	r2, #0
 800043a:	609a      	str	r2, [r3, #8]
  GPIO_InitStruct.Speed = GPIO_SPEED_FREQ_LOW;
 800043c:	1d3b      	adds	r3, r7, #4
 800043e:	2200      	movs	r2, #0
 8000440:	60da      	str	r2, [r3, #12]
  HAL_GPIO_Init(GPIOA, &GPIO_InitStruct);
 8000442:	1d3a      	adds	r2, r7, #4
 8000444:	23a0      	movs	r3, #160	@ 0xa0
 8000446:	05db      	lsls	r3, r3, #23
 8000448:	0011      	movs	r1, r2
 800044a:	0018      	movs	r0, r3
 800044c:	f000 fefc 	bl	8001248 <HAL_GPIO_Init>

  /* USER CODE BEGIN MX_GPIO_Init_2 */

  /* USER CODE END MX_GPIO_Init_2 */
}
 8000450:	46c0      	nop			@ (mov r8, r8)
 8000452:	46bd      	mov	sp, r7
 8000454:	b006      	add	sp, #24
 8000456:	bd80      	pop	{r7, pc}
 8000458:	40021000 	.word	0x40021000

0800045c <Read_ADC>:

/* USER CODE BEGIN 4 */
uint16_t Read_ADC(void)
{
 800045c:	b580      	push	{r7, lr}
 800045e:	b082      	sub	sp, #8
 8000460:	af00      	add	r7, sp, #0
  uint16_t adc_value = 0;
 8000462:	1dbb      	adds	r3, r7, #6
 8000464:	2200      	movs	r2, #0
 8000466:	801a      	strh	r2, [r3, #0]

  HAL_ADC_Start(&hadc);
 8000468:	4b0d      	ldr	r3, [pc, #52]	@ (80004a0 <Read_ADC+0x44>)
 800046a:	0018      	movs	r0, r3
 800046c:	f000 fa9c 	bl	80009a8 <HAL_ADC_Start>

  if (HAL_ADC_PollForConversion(&hadc, 10) == HAL_OK)
 8000470:	4b0b      	ldr	r3, [pc, #44]	@ (80004a0 <Read_ADC+0x44>)
 8000472:	210a      	movs	r1, #10
 8000474:	0018      	movs	r0, r3
 8000476:	f000 fb2b 	bl	8000ad0 <HAL_ADC_PollForConversion>
 800047a:	1e03      	subs	r3, r0, #0
 800047c:	d106      	bne.n	800048c <Read_ADC+0x30>
  {
    adc_value = HAL_ADC_GetValue(&hadc);
 800047e:	4b08      	ldr	r3, [pc, #32]	@ (80004a0 <Read_ADC+0x44>)
 8000480:	0018      	movs	r0, r3
 8000482:	f000 fbc1 	bl	8000c08 <HAL_ADC_GetValue>
 8000486:	0002      	movs	r2, r0
 8000488:	1dbb      	adds	r3, r7, #6
 800048a:	801a      	strh	r2, [r3, #0]
  }

  HAL_ADC_Stop(&hadc);
 800048c:	4b04      	ldr	r3, [pc, #16]	@ (80004a0 <Read_ADC+0x44>)
 800048e:	0018      	movs	r0, r3
 8000490:	f000 fade 	bl	8000a50 <HAL_ADC_Stop>

  return adc_value;
 8000494:	1dbb      	adds	r3, r7, #6
 8000496:	881b      	ldrh	r3, [r3, #0]
}
 8000498:	0018      	movs	r0, r3
 800049a:	46bd      	mov	sp, r7
 800049c:	b002      	add	sp, #8
 800049e:	bd80      	pop	{r7, pc}
 80004a0:	20000028 	.word	0x20000028

080004a4 <Error_Handler>:
/**
  * @brief  This function is executed in case of error occurrence.
  * @retval None
  */
void Error_Handler(void)
{
 80004a4:	b580      	push	{r7, lr}
 80004a6:	af00      	add	r7, sp, #0
  \details Disables IRQ interrupts by setting the I-bit in the CPSR.
           Can only be executed in Privileged modes.
 */
__STATIC_FORCEINLINE void __disable_irq(void)
{
  __ASM volatile ("cpsid i" : : : "memory");
 80004a8:	b672      	cpsid	i
}
 80004aa:	46c0      	nop			@ (mov r8, r8)
  /* USER CODE BEGIN Error_Handler_Debug */
  /* User can add his own implementation to report the HAL error return state */
  __disable_irq();
  while (1)
 80004ac:	46c0      	nop			@ (mov r8, r8)
 80004ae:	e7fd      	b.n	80004ac <Error_Handler+0x8>

080004b0 <HAL_MspInit>:
/* USER CODE END 0 */
/**
  * Initializes the Global MSP.
  */
void HAL_MspInit(void)
{
 80004b0:	b580      	push	{r7, lr}
 80004b2:	af00      	add	r7, sp, #0

  /* USER CODE BEGIN MspInit 0 */

  /* USER CODE END MspInit 0 */

  __HAL_RCC_SYSCFG_CLK_ENABLE();
 80004b4:	4b07      	ldr	r3, [pc, #28]	@ (80004d4 <HAL_MspInit+0x24>)
 80004b6:	6b5a      	ldr	r2, [r3, #52]	@ 0x34
 80004b8:	4b06      	ldr	r3, [pc, #24]	@ (80004d4 <HAL_MspInit+0x24>)
 80004ba:	2101      	movs	r1, #1
 80004bc:	430a      	orrs	r2, r1
 80004be:	635a      	str	r2, [r3, #52]	@ 0x34
  __HAL_RCC_PWR_CLK_ENABLE();
 80004c0:	4b04      	ldr	r3, [pc, #16]	@ (80004d4 <HAL_MspInit+0x24>)
 80004c2:	6b9a      	ldr	r2, [r3, #56]	@ 0x38
 80004c4:	4b03      	ldr	r3, [pc, #12]	@ (80004d4 <HAL_MspInit+0x24>)
 80004c6:	2180      	movs	r1, #128	@ 0x80
 80004c8:	0549      	lsls	r1, r1, #21
 80004ca:	430a      	orrs	r2, r1
 80004cc:	639a      	str	r2, [r3, #56]	@ 0x38
  /* System interrupt init*/

  /* USER CODE BEGIN MspInit 1 */

  /* USER CODE END MspInit 1 */
}
 80004ce:	46c0      	nop			@ (mov r8, r8)
 80004d0:	46bd      	mov	sp, r7
 80004d2:	bd80      	pop	{r7, pc}
 80004d4:	40021000 	.word	0x40021000

080004d8 <HAL_ADC_MspInit>:
  * This function configures the hardware resources used in this example
  * @param hadc: ADC handle pointer
  * @retval None
  */
void HAL_ADC_MspInit(ADC_HandleTypeDef* hadc)
{
 80004d8:	b590      	push	{r4, r7, lr}
 80004da:	b089      	sub	sp, #36	@ 0x24
 80004dc:	af00      	add	r7, sp, #0
 80004de:	6078      	str	r0, [r7, #4]
  GPIO_InitTypeDef GPIO_InitStruct = {0};
 80004e0:	240c      	movs	r4, #12
 80004e2:	193b      	adds	r3, r7, r4
 80004e4:	0018      	movs	r0, r3
 80004e6:	2314      	movs	r3, #20
 80004e8:	001a      	movs	r2, r3
 80004ea:	2100      	movs	r1, #0
 80004ec:	f001 fd82 	bl	8001ff4 <memset>
  if(hadc->Instance==ADC1)
 80004f0:	687b      	ldr	r3, [r7, #4]
 80004f2:	681b      	ldr	r3, [r3, #0]
 80004f4:	4a14      	ldr	r2, [pc, #80]	@ (8000548 <HAL_ADC_MspInit+0x70>)
 80004f6:	4293      	cmp	r3, r2
 80004f8:	d122      	bne.n	8000540 <HAL_ADC_MspInit+0x68>
  {
    /* USER CODE BEGIN ADC1_MspInit 0 */

    /* USER CODE END ADC1_MspInit 0 */
    /* Peripheral clock enable */
    __HAL_RCC_ADC1_CLK_ENABLE();
 80004fa:	4b14      	ldr	r3, [pc, #80]	@ (800054c <HAL_ADC_MspInit+0x74>)
 80004fc:	6b5a      	ldr	r2, [r3, #52]	@ 0x34
 80004fe:	4b13      	ldr	r3, [pc, #76]	@ (800054c <HAL_ADC_MspInit+0x74>)
 8000500:	2180      	movs	r1, #128	@ 0x80
 8000502:	0089      	lsls	r1, r1, #2
 8000504:	430a      	orrs	r2, r1
 8000506:	635a      	str	r2, [r3, #52]	@ 0x34

    __HAL_RCC_GPIOA_CLK_ENABLE();
 8000508:	4b10      	ldr	r3, [pc, #64]	@ (800054c <HAL_ADC_MspInit+0x74>)
 800050a:	6ada      	ldr	r2, [r3, #44]	@ 0x2c
 800050c:	4b0f      	ldr	r3, [pc, #60]	@ (800054c <HAL_ADC_MspInit+0x74>)
 800050e:	2101      	movs	r1, #1
 8000510:	430a      	orrs	r2, r1
 8000512:	62da      	str	r2, [r3, #44]	@ 0x2c
 8000514:	4b0d      	ldr	r3, [pc, #52]	@ (800054c <HAL_ADC_MspInit+0x74>)
 8000516:	6adb      	ldr	r3, [r3, #44]	@ 0x2c
 8000518:	2201      	movs	r2, #1
 800051a:	4013      	ands	r3, r2
 800051c:	60bb      	str	r3, [r7, #8]
 800051e:	68bb      	ldr	r3, [r7, #8]
    /**ADC GPIO Configuration
    PA0-CK_IN     ------> ADC_IN0
    */
    GPIO_InitStruct.Pin = GPIO_PIN_0;
 8000520:	193b      	adds	r3, r7, r4
 8000522:	2201      	movs	r2, #1
 8000524:	601a      	str	r2, [r3, #0]
    GPIO_InitStruct.Mode = GPIO_MODE_ANALOG;
 8000526:	193b      	adds	r3, r7, r4
 8000528:	2203      	movs	r2, #3
 800052a:	605a      	str	r2, [r3, #4]
    GPIO_InitStruct.Pull = GPIO_NOPULL;
 800052c:	193b      	adds	r3, r7, r4
 800052e:	2200      	movs	r2, #0
 8000530:	609a      	str	r2, [r3, #8]
    HAL_GPIO_Init(GPIOA, &GPIO_InitStruct);
 8000532:	193a      	adds	r2, r7, r4
 8000534:	23a0      	movs	r3, #160	@ 0xa0
 8000536:	05db      	lsls	r3, r3, #23
 8000538:	0011      	movs	r1, r2
 800053a:	0018      	movs	r0, r3
 800053c:	f000 fe84 	bl	8001248 <HAL_GPIO_Init>

    /* USER CODE END ADC1_MspInit 1 */

  }

}
 8000540:	46c0      	nop			@ (mov r8, r8)
 8000542:	46bd      	mov	sp, r7
 8000544:	b009      	add	sp, #36	@ 0x24
 8000546:	bd90      	pop	{r4, r7, pc}
 8000548:	40012400 	.word	0x40012400
 800054c:	40021000 	.word	0x40021000

08000550 <NMI_Handler>:
/******************************************************************************/
/**
  * @brief This function handles Non maskable Interrupt.
  */
void NMI_Handler(void)
{
 8000550:	b580      	push	{r7, lr}
 8000552:	af00      	add	r7, sp, #0
  /* USER CODE BEGIN NonMaskableInt_IRQn 0 */

  /* USER CODE END NonMaskableInt_IRQn 0 */
  /* USER CODE BEGIN NonMaskableInt_IRQn 1 */
   while (1)
 8000554:	46c0      	nop			@ (mov r8, r8)
 8000556:	e7fd      	b.n	8000554 <NMI_Handler+0x4>

08000558 <HardFault_Handler>:

/**
  * @brief This function handles Hard fault interrupt.
  */
void HardFault_Handler(void)
{
 8000558:	b580      	push	{r7, lr}
 800055a:	af00      	add	r7, sp, #0
  /* USER CODE BEGIN HardFault_IRQn 0 */

  /* USER CODE END HardFault_IRQn 0 */
  while (1)
 800055c:	46c0      	nop			@ (mov r8, r8)
 800055e:	e7fd      	b.n	800055c <HardFault_Handler+0x4>

08000560 <SVC_Handler>:

/**
  * @brief This function handles System service call via SWI instruction.
  */
void SVC_Handler(void)
{
 8000560:	b580      	push	{r7, lr}
 8000562:	af00      	add	r7, sp, #0

  /* USER CODE END SVC_IRQn 0 */
  /* USER CODE BEGIN SVC_IRQn 1 */

  /* USER CODE END SVC_IRQn 1 */
}
 8000564:	46c0      	nop			@ (mov r8, r8)
 8000566:	46bd      	mov	sp, r7
 8000568:	bd80      	pop	{r7, pc}

0800056a <PendSV_Handler>:

/**
  * @brief This function handles Pendable request for system service.
  */
void PendSV_Handler(void)
{
 800056a:	b580      	push	{r7, lr}
 800056c:	af00      	add	r7, sp, #0

  /* USER CODE END PendSV_IRQn 0 */
  /* USER CODE BEGIN PendSV_IRQn 1 */

  /* USER CODE END PendSV_IRQn 1 */
}
 800056e:	46c0      	nop			@ (mov r8, r8)
 8000570:	46bd      	mov	sp, r7
 8000572:	bd80      	pop	{r7, pc}

08000574 <SysTick_Handler>:

/**
  * @brief This function handles System tick timer.
  */
void SysTick_Handler(void)
{
 8000574:	b580      	push	{r7, lr}
 8000576:	af00      	add	r7, sp, #0
  /* USER CODE BEGIN SysTick_IRQn 0 */

  /* USER CODE END SysTick_IRQn 0 */
  HAL_IncTick();
 8000578:	f000 f886 	bl	8000688 <HAL_IncTick>
  /* USER CODE BEGIN SysTick_IRQn 1 */

  /* USER CODE END SysTick_IRQn 1 */
}
 800057c:	46c0      	nop			@ (mov r8, r8)
 800057e:	46bd      	mov	sp, r7
 8000580:	bd80      	pop	{r7, pc}

08000582 <SystemInit>:
  * @brief  Setup the microcontroller system.
  * @param  None
  * @retval None
  */
void SystemInit (void)
{
 8000582:	b580      	push	{r7, lr}
 8000584:	af00      	add	r7, sp, #0
  /* Configure the Vector Table location add offset address ------------------*/
#if defined (USER_VECT_TAB_ADDRESS)
  SCB->VTOR = VECT_TAB_BASE_ADDRESS | VECT_TAB_OFFSET; /* Vector Table Relocation in Internal SRAM */
#endif /* USER_VECT_TAB_ADDRESS */
}
 8000586:	46c0      	nop			@ (mov r8, r8)
 8000588:	46bd      	mov	sp, r7
 800058a:	bd80      	pop	{r7, pc}

0800058c <Reset_Handler>:

    .section  .text.Reset_Handler
  .weak  Reset_Handler
  .type  Reset_Handler, %function
Reset_Handler:  
   ldr   r0, =_estack
 800058c:	480d      	ldr	r0, [pc, #52]	@ (80005c4 <LoopForever+0x2>)
   mov   sp, r0          /* set stack pointer */
 800058e:	4685      	mov	sp, r0
   
/* Call the clock system initialization function.*/
  bl  SystemInit
 8000590:	f7ff fff7 	bl	8000582 <SystemInit>

/* Copy the data segment initializers from flash to SRAM */
  ldr r0, =_sdata
 8000594:	480c      	ldr	r0, [pc, #48]	@ (80005c8 <LoopForever+0x6>)
  ldr r1, =_edata
 8000596:	490d      	ldr	r1, [pc, #52]	@ (80005cc <LoopForever+0xa>)
  ldr r2, =_sidata
 8000598:	4a0d      	ldr	r2, [pc, #52]	@ (80005d0 <LoopForever+0xe>)
  movs r3, #0
 800059a:	2300      	movs	r3, #0
  b LoopCopyDataInit
 800059c:	e002      	b.n	80005a4 <LoopCopyDataInit>

0800059e <CopyDataInit>:

CopyDataInit:
  ldr r4, [r2, r3]
 800059e:	58d4      	ldr	r4, [r2, r3]
  str r4, [r0, r3]
 80005a0:	50c4      	str	r4, [r0, r3]
  adds r3, r3, #4
 80005a2:	3304      	adds	r3, #4

080005a4 <LoopCopyDataInit>:

LoopCopyDataInit:
  adds r4, r0, r3
 80005a4:	18c4      	adds	r4, r0, r3
  cmp r4, r1
 80005a6:	428c      	cmp	r4, r1
  bcc CopyDataInit
 80005a8:	d3f9      	bcc.n	800059e <CopyDataInit>
  
/* Zero fill the bss segment. */
  ldr r2, =_sbss
 80005aa:	4a0a      	ldr	r2, [pc, #40]	@ (80005d4 <LoopForever+0x12>)
  ldr r4, =_ebss
 80005ac:	4c0a      	ldr	r4, [pc, #40]	@ (80005d8 <LoopForever+0x16>)
  movs r3, #0
 80005ae:	2300      	movs	r3, #0
  b LoopFillZerobss
 80005b0:	e001      	b.n	80005b6 <LoopFillZerobss>

080005b2 <FillZerobss>:

FillZerobss:
  str  r3, [r2]
 80005b2:	6013      	str	r3, [r2, #0]
  adds r2, r2, #4
 80005b4:	3204      	adds	r2, #4

080005b6 <LoopFillZerobss>:

LoopFillZerobss:
  cmp r2, r4
 80005b6:	42a2      	cmp	r2, r4
  bcc FillZerobss
 80005b8:	d3fb      	bcc.n	80005b2 <FillZerobss>

/* Call static constructors */
    bl __libc_init_array
 80005ba:	f001 fd23 	bl	8002004 <__libc_init_array>
/* Call the application's entry point.*/
  bl  main
 80005be:	f7ff fe2f 	bl	8000220 <main>

080005c2 <LoopForever>:

LoopForever:
    b LoopForever
 80005c2:	e7fe      	b.n	80005c2 <LoopForever>
   ldr   r0, =_estack
 80005c4:	20002000 	.word	0x20002000
  ldr r0, =_sdata
 80005c8:	20000000 	.word	0x20000000
  ldr r1, =_edata
 80005cc:	2000000c 	.word	0x2000000c
  ldr r2, =_sidata
 80005d0:	08002088 	.word	0x08002088
  ldr r2, =_sbss
 80005d4:	2000000c 	.word	0x2000000c
  ldr r4, =_ebss
 80005d8:	20000088 	.word	0x20000088

080005dc <ADC1_COMP_IRQHandler>:
 * @retval : None
*/
    .section  .text.Default_Handler,"ax",%progbits
Default_Handler:
Infinite_Loop:
  b  Infinite_Loop
 80005dc:	e7fe      	b.n	80005dc <ADC1_COMP_IRQHandler>
	...

080005e0 <HAL_Init>:
  *        In the default implementation,Systick is used as source of time base.
  *        the tick variable is incremented each 1ms in its ISR.
  * @retval HAL status
  */
HAL_StatusTypeDef HAL_Init(void)
{
 80005e0:	b580      	push	{r7, lr}
 80005e2:	b082      	sub	sp, #8
 80005e4:	af00      	add	r7, sp, #0
  HAL_StatusTypeDef  status = HAL_OK;
 80005e6:	1dfb      	adds	r3, r7, #7
 80005e8:	2200      	movs	r2, #0
 80005ea:	701a      	strb	r2, [r3, #0]
#if (BUFFER_CACHE_DISABLE != 0)
  __HAL_FLASH_BUFFER_CACHE_DISABLE();
#endif /* BUFFER_CACHE_DISABLE */

#if (PREREAD_ENABLE != 0)
  __HAL_FLASH_PREREAD_BUFFER_ENABLE();
 80005ec:	4b0b      	ldr	r3, [pc, #44]	@ (800061c <HAL_Init+0x3c>)
 80005ee:	681a      	ldr	r2, [r3, #0]
 80005f0:	4b0a      	ldr	r3, [pc, #40]	@ (800061c <HAL_Init+0x3c>)
 80005f2:	2140      	movs	r1, #64	@ 0x40
 80005f4:	430a      	orrs	r2, r1
 80005f6:	601a      	str	r2, [r3, #0]
#if (PREFETCH_ENABLE != 0)
  __HAL_FLASH_PREFETCH_BUFFER_ENABLE();
#endif /* PREFETCH_ENABLE */

  /* Use SysTick as time base source and configure 1ms tick (default clock after Reset is MSI) */
  if (HAL_InitTick(TICK_INT_PRIORITY) != HAL_OK)
 80005f8:	2003      	movs	r0, #3
 80005fa:	f000 f811 	bl	8000620 <HAL_InitTick>
 80005fe:	1e03      	subs	r3, r0, #0
 8000600:	d003      	beq.n	800060a <HAL_Init+0x2a>
  {
    status = HAL_ERROR;
 8000602:	1dfb      	adds	r3, r7, #7
 8000604:	2201      	movs	r2, #1
 8000606:	701a      	strb	r2, [r3, #0]
 8000608:	e001      	b.n	800060e <HAL_Init+0x2e>
  }
  else
  {
    /* Init the low level hardware */
    HAL_MspInit();
 800060a:	f7ff ff51 	bl	80004b0 <HAL_MspInit>
  }

  /* Return function status */
  return status;
 800060e:	1dfb      	adds	r3, r7, #7
 8000610:	781b      	ldrb	r3, [r3, #0]
}
 8000612:	0018      	movs	r0, r3
 8000614:	46bd      	mov	sp, r7
 8000616:	b002      	add	sp, #8
 8000618:	bd80      	pop	{r7, pc}
 800061a:	46c0      	nop			@ (mov r8, r8)
 800061c:	40022000 	.word	0x40022000

08000620 <HAL_InitTick>:
  *       implementation  in user file.
  * @param TickPriority Tick interrupt priority.
  * @retval HAL status
  */
__weak HAL_StatusTypeDef HAL_InitTick(uint32_t TickPriority)
{
 8000620:	b590      	push	{r4, r7, lr}
 8000622:	b083      	sub	sp, #12
 8000624:	af00      	add	r7, sp, #0
 8000626:	6078      	str	r0, [r7, #4]
  /* Configure the SysTick to have interrupt in 1ms time basis*/
  if (HAL_SYSTICK_Config(SystemCoreClock / (1000U / uwTickFreq)) > 0U)
 8000628:	4b14      	ldr	r3, [pc, #80]	@ (800067c <HAL_InitTick+0x5c>)
 800062a:	681c      	ldr	r4, [r3, #0]
 800062c:	4b14      	ldr	r3, [pc, #80]	@ (8000680 <HAL_InitTick+0x60>)
 800062e:	781b      	ldrb	r3, [r3, #0]
 8000630:	0019      	movs	r1, r3
 8000632:	23fa      	movs	r3, #250	@ 0xfa
 8000634:	0098      	lsls	r0, r3, #2
 8000636:	f7ff fd67 	bl	8000108 <__udivsi3>
 800063a:	0003      	movs	r3, r0
 800063c:	0019      	movs	r1, r3
 800063e:	0020      	movs	r0, r4
 8000640:	f7ff fd62 	bl	8000108 <__udivsi3>
 8000644:	0003      	movs	r3, r0
 8000646:	0018      	movs	r0, r3
 8000648:	f000 fdf1 	bl	800122e <HAL_SYSTICK_Config>
 800064c:	1e03      	subs	r3, r0, #0
 800064e:	d001      	beq.n	8000654 <HAL_InitTick+0x34>
  {
    return HAL_ERROR;
 8000650:	2301      	movs	r3, #1
 8000652:	e00f      	b.n	8000674 <HAL_InitTick+0x54>
  }

  /* Configure the SysTick IRQ priority */
  if (TickPriority < (1UL << __NVIC_PRIO_BITS))
 8000654:	687b      	ldr	r3, [r7, #4]
 8000656:	2b03      	cmp	r3, #3
 8000658:	d80b      	bhi.n	8000672 <HAL_InitTick+0x52>
  {
    HAL_NVIC_SetPriority(SysTick_IRQn, TickPriority, 0U);
 800065a:	6879      	ldr	r1, [r7, #4]
 800065c:	2301      	movs	r3, #1
 800065e:	425b      	negs	r3, r3
 8000660:	2200      	movs	r2, #0
 8000662:	0018      	movs	r0, r3
 8000664:	f000 fdce 	bl	8001204 <HAL_NVIC_SetPriority>
    uwTickPrio = TickPriority;
 8000668:	4b06      	ldr	r3, [pc, #24]	@ (8000684 <HAL_InitTick+0x64>)
 800066a:	687a      	ldr	r2, [r7, #4]
 800066c:	601a      	str	r2, [r3, #0]
  {
    return HAL_ERROR;
  }

  /* Return function status */
  return HAL_OK;
 800066e:	2300      	movs	r3, #0
 8000670:	e000      	b.n	8000674 <HAL_InitTick+0x54>
    return HAL_ERROR;
 8000672:	2301      	movs	r3, #1
}
 8000674:	0018      	movs	r0, r3
 8000676:	46bd      	mov	sp, r7
 8000678:	b003      	add	sp, #12
 800067a:	bd90      	pop	{r4, r7, pc}
 800067c:	20000000 	.word	0x20000000
 8000680:	20000008 	.word	0x20000008
 8000684:	20000004 	.word	0x20000004

08000688 <HAL_IncTick>:
 * @note This function is declared as __weak to be overwritten in case of other
  *      implementations in user file.
  * @retval None
  */
__weak void HAL_IncTick(void)
{
 8000688:	b580      	push	{r7, lr}
 800068a:	af00      	add	r7, sp, #0
  uwTick += uwTickFreq;
 800068c:	4b05      	ldr	r3, [pc, #20]	@ (80006a4 <HAL_IncTick+0x1c>)
 800068e:	781b      	ldrb	r3, [r3, #0]
 8000690:	001a      	movs	r2, r3
 8000692:	4b05      	ldr	r3, [pc, #20]	@ (80006a8 <HAL_IncTick+0x20>)
 8000694:	681b      	ldr	r3, [r3, #0]
 8000696:	18d2      	adds	r2, r2, r3
 8000698:	4b03      	ldr	r3, [pc, #12]	@ (80006a8 <HAL_IncTick+0x20>)
 800069a:	601a      	str	r2, [r3, #0]
}
 800069c:	46c0      	nop			@ (mov r8, r8)
 800069e:	46bd      	mov	sp, r7
 80006a0:	bd80      	pop	{r7, pc}
 80006a2:	46c0      	nop			@ (mov r8, r8)
 80006a4:	20000008 	.word	0x20000008
 80006a8:	20000084 	.word	0x20000084

080006ac <HAL_GetTick>:
  * @note This function is declared as __weak to be overwritten in case of other
  *       implementations in user file.
  * @retval tick value
  */
__weak uint32_t HAL_GetTick(void)
{
 80006ac:	b580      	push	{r7, lr}
 80006ae:	af00      	add	r7, sp, #0
  return uwTick;
 80006b0:	4b02      	ldr	r3, [pc, #8]	@ (80006bc <HAL_GetTick+0x10>)
 80006b2:	681b      	ldr	r3, [r3, #0]
}
 80006b4:	0018      	movs	r0, r3
 80006b6:	46bd      	mov	sp, r7
 80006b8:	bd80      	pop	{r7, pc}
 80006ba:	46c0      	nop			@ (mov r8, r8)
 80006bc:	20000084 	.word	0x20000084

080006c0 <HAL_ADC_Init>:
  *         of structure "ADC_InitTypeDef".
  * @param  hadc ADC handle
  * @retval HAL status
  */
HAL_StatusTypeDef HAL_ADC_Init(ADC_HandleTypeDef *hadc)
{
 80006c0:	b580      	push	{r7, lr}
 80006c2:	b082      	sub	sp, #8
 80006c4:	af00      	add	r7, sp, #0
 80006c6:	6078      	str	r0, [r7, #4]

  /* Check ADC handle */
  if (hadc == NULL)
 80006c8:	687b      	ldr	r3, [r7, #4]
 80006ca:	2b00      	cmp	r3, #0
 80006cc:	d101      	bne.n	80006d2 <HAL_ADC_Init+0x12>
  {
    return HAL_ERROR;
 80006ce:	2301      	movs	r3, #1
 80006d0:	e159      	b.n	8000986 <HAL_ADC_Init+0x2c6>
  /* Refer to header of this file for more details on clock enabling procedure*/

  /* Actions performed only if ADC is coming from state reset:                */
  /* - Initialization of ADC MSP                                              */
  /* - ADC voltage regulator enable                                           */
  if (hadc->State == HAL_ADC_STATE_RESET)
 80006d2:	687b      	ldr	r3, [r7, #4]
 80006d4:	6d5b      	ldr	r3, [r3, #84]	@ 0x54
 80006d6:	2b00      	cmp	r3, #0
 80006d8:	d10a      	bne.n	80006f0 <HAL_ADC_Init+0x30>
  {
    /* Initialize ADC error code */
    ADC_CLEAR_ERRORCODE(hadc);
 80006da:	687b      	ldr	r3, [r7, #4]
 80006dc:	2200      	movs	r2, #0
 80006de:	659a      	str	r2, [r3, #88]	@ 0x58

    /* Allocate lock resource and initialize it */
    hadc->Lock = HAL_UNLOCKED;
 80006e0:	687b      	ldr	r3, [r7, #4]
 80006e2:	2250      	movs	r2, #80	@ 0x50
 80006e4:	2100      	movs	r1, #0
 80006e6:	5499      	strb	r1, [r3, r2]

    /* Init the low level hardware */
    hadc->MspInitCallback(hadc);
#else
    /* Init the low level hardware */
    HAL_ADC_MspInit(hadc);
 80006e8:	687b      	ldr	r3, [r7, #4]
 80006ea:	0018      	movs	r0, r3
 80006ec:	f7ff fef4 	bl	80004d8 <HAL_ADC_MspInit>
  /* Configuration of ADC parameters if previous preliminary actions are      */
  /* correctly completed.                                                     */
  /* and if there is no conversion on going on regular group (ADC can be      */
  /* enabled anyway, in case of call of this function to update a parameter   */
  /* on the fly).                                                             */
  if (HAL_IS_BIT_SET(hadc->State, HAL_ADC_STATE_ERROR_INTERNAL) ||
 80006f0:	687b      	ldr	r3, [r7, #4]
 80006f2:	6d5b      	ldr	r3, [r3, #84]	@ 0x54
 80006f4:	2210      	movs	r2, #16
 80006f6:	4013      	ands	r3, r2
 80006f8:	2b10      	cmp	r3, #16
 80006fa:	d005      	beq.n	8000708 <HAL_ADC_Init+0x48>
      (ADC_IS_CONVERSION_ONGOING_REGULAR(hadc) != RESET))
 80006fc:	687b      	ldr	r3, [r7, #4]
 80006fe:	681b      	ldr	r3, [r3, #0]
 8000700:	689b      	ldr	r3, [r3, #8]
 8000702:	2204      	movs	r2, #4
 8000704:	4013      	ands	r3, r2
  if (HAL_IS_BIT_SET(hadc->State, HAL_ADC_STATE_ERROR_INTERNAL) ||
 8000706:	d00b      	beq.n	8000720 <HAL_ADC_Init+0x60>
  {
    /* Update ADC state machine to error */
    SET_BIT(hadc->State, HAL_ADC_STATE_ERROR_INTERNAL);
 8000708:	687b      	ldr	r3, [r7, #4]
 800070a:	6d5b      	ldr	r3, [r3, #84]	@ 0x54
 800070c:	2210      	movs	r2, #16
 800070e:	431a      	orrs	r2, r3
 8000710:	687b      	ldr	r3, [r7, #4]
 8000712:	655a      	str	r2, [r3, #84]	@ 0x54

    /* Process unlocked */
    __HAL_UNLOCK(hadc);
 8000714:	687b      	ldr	r3, [r7, #4]
 8000716:	2250      	movs	r2, #80	@ 0x50
 8000718:	2100      	movs	r1, #0
 800071a:	5499      	strb	r1, [r3, r2]
    return HAL_ERROR;
 800071c:	2301      	movs	r3, #1
 800071e:	e132      	b.n	8000986 <HAL_ADC_Init+0x2c6>
  }

  /* Set ADC state */
  ADC_STATE_CLR_SET(hadc->State,
 8000720:	687b      	ldr	r3, [r7, #4]
 8000722:	6d5b      	ldr	r3, [r3, #84]	@ 0x54
 8000724:	4a9a      	ldr	r2, [pc, #616]	@ (8000990 <HAL_ADC_Init+0x2d0>)
 8000726:	4013      	ands	r3, r2
 8000728:	2202      	movs	r2, #2
 800072a:	431a      	orrs	r2, r3
 800072c:	687b      	ldr	r3, [r7, #4]
 800072e:	655a      	str	r2, [r3, #84]	@ 0x54
  /* Parameters update conditioned to ADC state:                            */
  /* Parameters that can be updated only when ADC is disabled:              */
  /*  - ADC clock mode                                                      */
  /*  - ADC clock prescaler                                                 */
  /*  - ADC Resolution                                                      */
  if (ADC_IS_ENABLE(hadc) == RESET)
 8000730:	687b      	ldr	r3, [r7, #4]
 8000732:	681b      	ldr	r3, [r3, #0]
 8000734:	689b      	ldr	r3, [r3, #8]
 8000736:	2203      	movs	r2, #3
 8000738:	4013      	ands	r3, r2
 800073a:	2b01      	cmp	r3, #1
 800073c:	d108      	bne.n	8000750 <HAL_ADC_Init+0x90>
 800073e:	687b      	ldr	r3, [r7, #4]
 8000740:	681b      	ldr	r3, [r3, #0]
 8000742:	681b      	ldr	r3, [r3, #0]
 8000744:	2201      	movs	r2, #1
 8000746:	4013      	ands	r3, r2
 8000748:	2b01      	cmp	r3, #1
 800074a:	d101      	bne.n	8000750 <HAL_ADC_Init+0x90>
 800074c:	2301      	movs	r3, #1
 800074e:	e000      	b.n	8000752 <HAL_ADC_Init+0x92>
 8000750:	2300      	movs	r3, #0
 8000752:	2b00      	cmp	r3, #0
 8000754:	d149      	bne.n	80007ea <HAL_ADC_Init+0x12a>
    /*   - internal measurement paths: Vbat, temperature sensor, Vref       */
    /*     (set into HAL_ADC_ConfigChannel() )                              */

    /* Configuration of ADC clock: clock source PCLK or asynchronous with
    selectable prescaler */
    __HAL_ADC_CLOCK_PRESCALER(hadc);
 8000756:	687b      	ldr	r3, [r7, #4]
 8000758:	685a      	ldr	r2, [r3, #4]
 800075a:	23c0      	movs	r3, #192	@ 0xc0
 800075c:	061b      	lsls	r3, r3, #24
 800075e:	429a      	cmp	r2, r3
 8000760:	d00b      	beq.n	800077a <HAL_ADC_Init+0xba>
 8000762:	687b      	ldr	r3, [r7, #4]
 8000764:	685a      	ldr	r2, [r3, #4]
 8000766:	2380      	movs	r3, #128	@ 0x80
 8000768:	05db      	lsls	r3, r3, #23
 800076a:	429a      	cmp	r2, r3
 800076c:	d005      	beq.n	800077a <HAL_ADC_Init+0xba>
 800076e:	687b      	ldr	r3, [r7, #4]
 8000770:	685a      	ldr	r2, [r3, #4]
 8000772:	2380      	movs	r3, #128	@ 0x80
 8000774:	061b      	lsls	r3, r3, #24
 8000776:	429a      	cmp	r2, r3
 8000778:	d111      	bne.n	800079e <HAL_ADC_Init+0xde>
 800077a:	687b      	ldr	r3, [r7, #4]
 800077c:	681b      	ldr	r3, [r3, #0]
 800077e:	691a      	ldr	r2, [r3, #16]
 8000780:	687b      	ldr	r3, [r7, #4]
 8000782:	681b      	ldr	r3, [r3, #0]
 8000784:	0092      	lsls	r2, r2, #2
 8000786:	0892      	lsrs	r2, r2, #2
 8000788:	611a      	str	r2, [r3, #16]
 800078a:	687b      	ldr	r3, [r7, #4]
 800078c:	681b      	ldr	r3, [r3, #0]
 800078e:	6919      	ldr	r1, [r3, #16]
 8000790:	687b      	ldr	r3, [r7, #4]
 8000792:	685a      	ldr	r2, [r3, #4]
 8000794:	687b      	ldr	r3, [r7, #4]
 8000796:	681b      	ldr	r3, [r3, #0]
 8000798:	430a      	orrs	r2, r1
 800079a:	611a      	str	r2, [r3, #16]
 800079c:	e014      	b.n	80007c8 <HAL_ADC_Init+0x108>
 800079e:	687b      	ldr	r3, [r7, #4]
 80007a0:	681b      	ldr	r3, [r3, #0]
 80007a2:	691a      	ldr	r2, [r3, #16]
 80007a4:	687b      	ldr	r3, [r7, #4]
 80007a6:	681b      	ldr	r3, [r3, #0]
 80007a8:	0092      	lsls	r2, r2, #2
 80007aa:	0892      	lsrs	r2, r2, #2
 80007ac:	611a      	str	r2, [r3, #16]
 80007ae:	4b79      	ldr	r3, [pc, #484]	@ (8000994 <HAL_ADC_Init+0x2d4>)
 80007b0:	681a      	ldr	r2, [r3, #0]
 80007b2:	4b78      	ldr	r3, [pc, #480]	@ (8000994 <HAL_ADC_Init+0x2d4>)
 80007b4:	4978      	ldr	r1, [pc, #480]	@ (8000998 <HAL_ADC_Init+0x2d8>)
 80007b6:	400a      	ands	r2, r1
 80007b8:	601a      	str	r2, [r3, #0]
 80007ba:	4b76      	ldr	r3, [pc, #472]	@ (8000994 <HAL_ADC_Init+0x2d4>)
 80007bc:	6819      	ldr	r1, [r3, #0]
 80007be:	687b      	ldr	r3, [r7, #4]
 80007c0:	685a      	ldr	r2, [r3, #4]
 80007c2:	4b74      	ldr	r3, [pc, #464]	@ (8000994 <HAL_ADC_Init+0x2d4>)
 80007c4:	430a      	orrs	r2, r1
 80007c6:	601a      	str	r2, [r3, #0]

    /* Configuration of ADC:                                                */
    /*  - Resolution                                                        */
    hadc->Instance->CFGR1 &= ~(ADC_CFGR1_RES);
 80007c8:	687b      	ldr	r3, [r7, #4]
 80007ca:	681b      	ldr	r3, [r3, #0]
 80007cc:	68da      	ldr	r2, [r3, #12]
 80007ce:	687b      	ldr	r3, [r7, #4]
 80007d0:	681b      	ldr	r3, [r3, #0]
 80007d2:	2118      	movs	r1, #24
 80007d4:	438a      	bics	r2, r1
 80007d6:	60da      	str	r2, [r3, #12]
    hadc->Instance->CFGR1 |= hadc->Init.Resolution;
 80007d8:	687b      	ldr	r3, [r7, #4]
 80007da:	681b      	ldr	r3, [r3, #0]
 80007dc:	68d9      	ldr	r1, [r3, #12]
 80007de:	687b      	ldr	r3, [r7, #4]
 80007e0:	689a      	ldr	r2, [r3, #8]
 80007e2:	687b      	ldr	r3, [r7, #4]
 80007e4:	681b      	ldr	r3, [r3, #0]
 80007e6:	430a      	orrs	r2, r1
 80007e8:	60da      	str	r2, [r3, #12]
  }

  /* Set the Low Frequency mode */
  ADC->CCR &= (uint32_t)~ADC_CCR_LFMEN;
 80007ea:	4b6a      	ldr	r3, [pc, #424]	@ (8000994 <HAL_ADC_Init+0x2d4>)
 80007ec:	681a      	ldr	r2, [r3, #0]
 80007ee:	4b69      	ldr	r3, [pc, #420]	@ (8000994 <HAL_ADC_Init+0x2d4>)
 80007f0:	496a      	ldr	r1, [pc, #424]	@ (800099c <HAL_ADC_Init+0x2dc>)
 80007f2:	400a      	ands	r2, r1
 80007f4:	601a      	str	r2, [r3, #0]
  ADC->CCR |= __HAL_ADC_CCR_LOWFREQUENCY(hadc->Init.LowPowerFrequencyMode);
 80007f6:	4b67      	ldr	r3, [pc, #412]	@ (8000994 <HAL_ADC_Init+0x2d4>)
 80007f8:	6819      	ldr	r1, [r3, #0]
 80007fa:	687b      	ldr	r3, [r7, #4]
 80007fc:	6b5b      	ldr	r3, [r3, #52]	@ 0x34
 80007fe:	065a      	lsls	r2, r3, #25
 8000800:	4b64      	ldr	r3, [pc, #400]	@ (8000994 <HAL_ADC_Init+0x2d4>)
 8000802:	430a      	orrs	r2, r1
 8000804:	601a      	str	r2, [r3, #0]

  /* Enable voltage regulator (if disabled at this step) */
  if (HAL_IS_BIT_CLR(hadc->Instance->CR, ADC_CR_ADVREGEN))
 8000806:	687b      	ldr	r3, [r7, #4]
 8000808:	681b      	ldr	r3, [r3, #0]
 800080a:	689a      	ldr	r2, [r3, #8]
 800080c:	2380      	movs	r3, #128	@ 0x80
 800080e:	055b      	lsls	r3, r3, #21
 8000810:	4013      	ands	r3, r2
 8000812:	d108      	bne.n	8000826 <HAL_ADC_Init+0x166>
  {
    /* Set ADVREGEN bit */
    hadc->Instance->CR |= ADC_CR_ADVREGEN;
 8000814:	687b      	ldr	r3, [r7, #4]
 8000816:	681b      	ldr	r3, [r3, #0]
 8000818:	689a      	ldr	r2, [r3, #8]
 800081a:	687b      	ldr	r3, [r7, #4]
 800081c:	681b      	ldr	r3, [r3, #0]
 800081e:	2180      	movs	r1, #128	@ 0x80
 8000820:	0549      	lsls	r1, r1, #21
 8000822:	430a      	orrs	r2, r1
 8000824:	609a      	str	r2, [r3, #8]
  /*  - Continuous conversion mode                                            */
  /*  - DMA continuous request                                                */
  /*  - Overrun                                                               */
  /*  - AutoDelay feature                                                     */
  /*  - Discontinuous mode                                                    */
  hadc->Instance->CFGR1 &= ~(ADC_CFGR1_ALIGN   |
 8000826:	687b      	ldr	r3, [r7, #4]
 8000828:	681b      	ldr	r3, [r3, #0]
 800082a:	68da      	ldr	r2, [r3, #12]
 800082c:	687b      	ldr	r3, [r7, #4]
 800082e:	681b      	ldr	r3, [r3, #0]
 8000830:	495b      	ldr	r1, [pc, #364]	@ (80009a0 <HAL_ADC_Init+0x2e0>)
 8000832:	400a      	ands	r2, r1
 8000834:	60da      	str	r2, [r3, #12]
                             ADC_CFGR1_OVRMOD  |
                             ADC_CFGR1_AUTDLY  |
                             ADC_CFGR1_AUTOFF  |
                             ADC_CFGR1_DISCEN);

  hadc->Instance->CFGR1 |= (hadc->Init.DataAlign                             |
 8000836:	687b      	ldr	r3, [r7, #4]
 8000838:	681b      	ldr	r3, [r3, #0]
 800083a:	68d9      	ldr	r1, [r3, #12]
 800083c:	687b      	ldr	r3, [r7, #4]
 800083e:	68da      	ldr	r2, [r3, #12]
                            ADC_SCANDIR(hadc->Init.ScanConvMode)             |
 8000840:	687b      	ldr	r3, [r7, #4]
 8000842:	691b      	ldr	r3, [r3, #16]
 8000844:	2b02      	cmp	r3, #2
 8000846:	d101      	bne.n	800084c <HAL_ADC_Init+0x18c>
 8000848:	2304      	movs	r3, #4
 800084a:	e000      	b.n	800084e <HAL_ADC_Init+0x18e>
 800084c:	2300      	movs	r3, #0
  hadc->Instance->CFGR1 |= (hadc->Init.DataAlign                             |
 800084e:	431a      	orrs	r2, r3
                            ADC_CONTINUOUS((uint32_t)hadc->Init.ContinuousConvMode)    |
 8000850:	687b      	ldr	r3, [r7, #4]
 8000852:	2020      	movs	r0, #32
 8000854:	5c1b      	ldrb	r3, [r3, r0]
 8000856:	035b      	lsls	r3, r3, #13
                            ADC_SCANDIR(hadc->Init.ScanConvMode)             |
 8000858:	431a      	orrs	r2, r3
                            ADC_DMACONTREQ((uint32_t)hadc->Init.DMAContinuousRequests) |
 800085a:	687b      	ldr	r3, [r7, #4]
 800085c:	202c      	movs	r0, #44	@ 0x2c
 800085e:	5c1b      	ldrb	r3, [r3, r0]
 8000860:	005b      	lsls	r3, r3, #1
                            ADC_CONTINUOUS((uint32_t)hadc->Init.ContinuousConvMode)    |
 8000862:	431a      	orrs	r2, r3
                            hadc->Init.Overrun                               |
 8000864:	687b      	ldr	r3, [r7, #4]
 8000866:	6b1b      	ldr	r3, [r3, #48]	@ 0x30
                            ADC_DMACONTREQ((uint32_t)hadc->Init.DMAContinuousRequests) |
 8000868:	431a      	orrs	r2, r3
                            __HAL_ADC_CFGR1_AutoDelay(hadc->Init.LowPowerAutoWait) |
 800086a:	687b      	ldr	r3, [r7, #4]
 800086c:	699b      	ldr	r3, [r3, #24]
 800086e:	039b      	lsls	r3, r3, #14
                            hadc->Init.Overrun                               |
 8000870:	431a      	orrs	r2, r3
                            __HAL_ADC_CFGR1_AUTOFF(hadc->Init.LowPowerAutoPowerOff));
 8000872:	687b      	ldr	r3, [r7, #4]
 8000874:	69db      	ldr	r3, [r3, #28]
 8000876:	03db      	lsls	r3, r3, #15
                            __HAL_ADC_CFGR1_AutoDelay(hadc->Init.LowPowerAutoWait) |
 8000878:	431a      	orrs	r2, r3
  hadc->Instance->CFGR1 |= (hadc->Init.DataAlign                             |
 800087a:	687b      	ldr	r3, [r7, #4]
 800087c:	681b      	ldr	r3, [r3, #0]
 800087e:	430a      	orrs	r2, r1
 8000880:	60da      	str	r2, [r3, #12]
  /* Enable external trigger if trigger selection is different of software  */
  /* start.                                                                 */
  /* Note: This configuration keeps the hardware feature of parameter       */
  /*       ExternalTrigConvEdge "trigger edge none" equivalent to           */
  /*       software start.                                                  */
  if (hadc->Init.ExternalTrigConv != ADC_SOFTWARE_START)
 8000882:	687b      	ldr	r3, [r7, #4]
 8000884:	6a5a      	ldr	r2, [r3, #36]	@ 0x24
 8000886:	23c2      	movs	r3, #194	@ 0xc2
 8000888:	33ff      	adds	r3, #255	@ 0xff
 800088a:	429a      	cmp	r2, r3
 800088c:	d00b      	beq.n	80008a6 <HAL_ADC_Init+0x1e6>
  {
    hadc->Instance->CFGR1 |= hadc->Init.ExternalTrigConv |
 800088e:	687b      	ldr	r3, [r7, #4]
 8000890:	681b      	ldr	r3, [r3, #0]
 8000892:	68d9      	ldr	r1, [r3, #12]
 8000894:	687b      	ldr	r3, [r7, #4]
 8000896:	6a5a      	ldr	r2, [r3, #36]	@ 0x24
                             hadc->Init.ExternalTrigConvEdge;
 8000898:	687b      	ldr	r3, [r7, #4]
 800089a:	6a9b      	ldr	r3, [r3, #40]	@ 0x28
    hadc->Instance->CFGR1 |= hadc->Init.ExternalTrigConv |
 800089c:	431a      	orrs	r2, r3
 800089e:	687b      	ldr	r3, [r7, #4]
 80008a0:	681b      	ldr	r3, [r3, #0]
 80008a2:	430a      	orrs	r2, r1
 80008a4:	60da      	str	r2, [r3, #12]
  }

  /* Enable discontinuous mode only if continuous mode is disabled */
  if (hadc->Init.DiscontinuousConvMode == ENABLE)
 80008a6:	687b      	ldr	r3, [r7, #4]
 80008a8:	2221      	movs	r2, #33	@ 0x21
 80008aa:	5c9b      	ldrb	r3, [r3, r2]
 80008ac:	2b01      	cmp	r3, #1
 80008ae:	d11a      	bne.n	80008e6 <HAL_ADC_Init+0x226>
  {
    if (hadc->Init.ContinuousConvMode == DISABLE)
 80008b0:	687b      	ldr	r3, [r7, #4]
 80008b2:	2220      	movs	r2, #32
 80008b4:	5c9b      	ldrb	r3, [r3, r2]
 80008b6:	2b00      	cmp	r3, #0
 80008b8:	d109      	bne.n	80008ce <HAL_ADC_Init+0x20e>
    {
      /* Enable the selected ADC group regular discontinuous mode */
      hadc->Instance->CFGR1 |= (ADC_CFGR1_DISCEN);
 80008ba:	687b      	ldr	r3, [r7, #4]
 80008bc:	681b      	ldr	r3, [r3, #0]
 80008be:	68da      	ldr	r2, [r3, #12]
 80008c0:	687b      	ldr	r3, [r7, #4]
 80008c2:	681b      	ldr	r3, [r3, #0]
 80008c4:	2180      	movs	r1, #128	@ 0x80
 80008c6:	0249      	lsls	r1, r1, #9
 80008c8:	430a      	orrs	r2, r1
 80008ca:	60da      	str	r2, [r3, #12]
 80008cc:	e00b      	b.n	80008e6 <HAL_ADC_Init+0x226>
      /* ADC regular group discontinuous was intended to be enabled,        */
      /* but ADC regular group modes continuous and sequencer discontinuous */
      /* cannot be enabled simultaneously.                                  */

      /* Update ADC state machine to error */
      SET_BIT(hadc->State, HAL_ADC_STATE_ERROR_CONFIG);
 80008ce:	687b      	ldr	r3, [r7, #4]
 80008d0:	6d5b      	ldr	r3, [r3, #84]	@ 0x54
 80008d2:	2220      	movs	r2, #32
 80008d4:	431a      	orrs	r2, r3
 80008d6:	687b      	ldr	r3, [r7, #4]
 80008d8:	655a      	str	r2, [r3, #84]	@ 0x54

      /* Set ADC error code to ADC peripheral internal error */
      SET_BIT(hadc->ErrorCode, HAL_ADC_ERROR_INTERNAL);
 80008da:	687b      	ldr	r3, [r7, #4]
 80008dc:	6d9b      	ldr	r3, [r3, #88]	@ 0x58
 80008de:	2201      	movs	r2, #1
 80008e0:	431a      	orrs	r2, r3
 80008e2:	687b      	ldr	r3, [r7, #4]
 80008e4:	659a      	str	r2, [r3, #88]	@ 0x58
    }
  }

  if (hadc->Init.OversamplingMode == ENABLE)
 80008e6:	687b      	ldr	r3, [r7, #4]
 80008e8:	6bdb      	ldr	r3, [r3, #60]	@ 0x3c
 80008ea:	2b01      	cmp	r3, #1
 80008ec:	d11f      	bne.n	800092e <HAL_ADC_Init+0x26e>
    /* Configuration of Oversampler:                                          */
    /*  - Oversampling Ratio                                                  */
    /*  - Right bit shift                                                     */
    /*  - Triggered mode                                                      */

    hadc->Instance->CFGR2 &= ~(ADC_CFGR2_OVSR |
 80008ee:	687b      	ldr	r3, [r7, #4]
 80008f0:	681b      	ldr	r3, [r3, #0]
 80008f2:	691a      	ldr	r2, [r3, #16]
 80008f4:	687b      	ldr	r3, [r7, #4]
 80008f6:	681b      	ldr	r3, [r3, #0]
 80008f8:	492a      	ldr	r1, [pc, #168]	@ (80009a4 <HAL_ADC_Init+0x2e4>)
 80008fa:	400a      	ands	r2, r1
 80008fc:	611a      	str	r2, [r3, #16]
                               ADC_CFGR2_OVSS |
                               ADC_CFGR2_TOVS);

    hadc->Instance->CFGR2 |= (hadc->Init.Oversample.Ratio         |
 80008fe:	687b      	ldr	r3, [r7, #4]
 8000900:	681b      	ldr	r3, [r3, #0]
 8000902:	6919      	ldr	r1, [r3, #16]
 8000904:	687b      	ldr	r3, [r7, #4]
 8000906:	6c1a      	ldr	r2, [r3, #64]	@ 0x40
                              hadc->Init.Oversample.RightBitShift             |
 8000908:	687b      	ldr	r3, [r7, #4]
 800090a:	6c5b      	ldr	r3, [r3, #68]	@ 0x44
    hadc->Instance->CFGR2 |= (hadc->Init.Oversample.Ratio         |
 800090c:	431a      	orrs	r2, r3
                              hadc->Init.Oversample.TriggeredMode);
 800090e:	687b      	ldr	r3, [r7, #4]
 8000910:	6c9b      	ldr	r3, [r3, #72]	@ 0x48
                              hadc->Init.Oversample.RightBitShift             |
 8000912:	431a      	orrs	r2, r3
    hadc->Instance->CFGR2 |= (hadc->Init.Oversample.Ratio         |
 8000914:	687b      	ldr	r3, [r7, #4]
 8000916:	681b      	ldr	r3, [r3, #0]
 8000918:	430a      	orrs	r2, r1
 800091a:	611a      	str	r2, [r3, #16]

    /* Enable OverSampling mode */
    hadc->Instance->CFGR2 |= ADC_CFGR2_OVSE;
 800091c:	687b      	ldr	r3, [r7, #4]
 800091e:	681b      	ldr	r3, [r3, #0]
 8000920:	691a      	ldr	r2, [r3, #16]
 8000922:	687b      	ldr	r3, [r7, #4]
 8000924:	681b      	ldr	r3, [r3, #0]
 8000926:	2101      	movs	r1, #1
 8000928:	430a      	orrs	r2, r1
 800092a:	611a      	str	r2, [r3, #16]
 800092c:	e00e      	b.n	800094c <HAL_ADC_Init+0x28c>
  }
  else
  {
    if (HAL_IS_BIT_SET(hadc->Instance->CFGR2, ADC_CFGR2_OVSE))
 800092e:	687b      	ldr	r3, [r7, #4]
 8000930:	681b      	ldr	r3, [r3, #0]
 8000932:	691b      	ldr	r3, [r3, #16]
 8000934:	2201      	movs	r2, #1
 8000936:	4013      	ands	r3, r2
 8000938:	2b01      	cmp	r3, #1
 800093a:	d107      	bne.n	800094c <HAL_ADC_Init+0x28c>
    {
      /* Disable OverSampling mode if needed */
      hadc->Instance->CFGR2 &= ~ADC_CFGR2_OVSE;
 800093c:	687b      	ldr	r3, [r7, #4]
 800093e:	681b      	ldr	r3, [r3, #0]
 8000940:	691a      	ldr	r2, [r3, #16]
 8000942:	687b      	ldr	r3, [r7, #4]
 8000944:	681b      	ldr	r3, [r3, #0]
 8000946:	2101      	movs	r1, #1
 8000948:	438a      	bics	r2, r1
 800094a:	611a      	str	r2, [r3, #16]
    }
  }

  /* Clear the old sampling time */
  hadc->Instance->SMPR &= (uint32_t)(~ADC_SMPR_SMPR);
 800094c:	687b      	ldr	r3, [r7, #4]
 800094e:	681b      	ldr	r3, [r3, #0]
 8000950:	695a      	ldr	r2, [r3, #20]
 8000952:	687b      	ldr	r3, [r7, #4]
 8000954:	681b      	ldr	r3, [r3, #0]
 8000956:	2107      	movs	r1, #7
 8000958:	438a      	bics	r2, r1
 800095a:	615a      	str	r2, [r3, #20]

  /* Set the new sample time */
  hadc->Instance->SMPR |= hadc->Init.SamplingTime;
 800095c:	687b      	ldr	r3, [r7, #4]
 800095e:	681b      	ldr	r3, [r3, #0]
 8000960:	6959      	ldr	r1, [r3, #20]
 8000962:	687b      	ldr	r3, [r7, #4]
 8000964:	6b9a      	ldr	r2, [r3, #56]	@ 0x38
 8000966:	687b      	ldr	r3, [r7, #4]
 8000968:	681b      	ldr	r3, [r3, #0]
 800096a:	430a      	orrs	r2, r1
 800096c:	615a      	str	r2, [r3, #20]

  /* Clear ADC error code */
  ADC_CLEAR_ERRORCODE(hadc);
 800096e:	687b      	ldr	r3, [r7, #4]
 8000970:	2200      	movs	r2, #0
 8000972:	659a      	str	r2, [r3, #88]	@ 0x58

  /* Set the ADC state */
  ADC_STATE_CLR_SET(hadc->State,
 8000974:	687b      	ldr	r3, [r7, #4]
 8000976:	6d5b      	ldr	r3, [r3, #84]	@ 0x54
 8000978:	2203      	movs	r2, #3
 800097a:	4393      	bics	r3, r2
 800097c:	2201      	movs	r2, #1
 800097e:	431a      	orrs	r2, r3
 8000980:	687b      	ldr	r3, [r7, #4]
 8000982:	655a      	str	r2, [r3, #84]	@ 0x54
                    HAL_ADC_STATE_BUSY_INTERNAL,
                    HAL_ADC_STATE_READY);


  /* Return function status */
  return HAL_OK;
 8000984:	2300      	movs	r3, #0
}
 8000986:	0018      	movs	r0, r3
 8000988:	46bd      	mov	sp, r7
 800098a:	b002      	add	sp, #8
 800098c:	bd80      	pop	{r7, pc}
 800098e:	46c0      	nop			@ (mov r8, r8)
 8000990:	fffffefd 	.word	0xfffffefd
 8000994:	40012708 	.word	0x40012708
 8000998:	ffc3ffff 	.word	0xffc3ffff
 800099c:	fdffffff 	.word	0xfdffffff
 80009a0:	fffe0219 	.word	0xfffe0219
 80009a4:	fffffc03 	.word	0xfffffc03

080009a8 <HAL_ADC_Start>:
  * @note   Interruptions enabled in this function: None.
  * @param  hadc ADC handle
  * @retval HAL status
  */
HAL_StatusTypeDef HAL_ADC_Start(ADC_HandleTypeDef *hadc)
{
 80009a8:	b590      	push	{r4, r7, lr}
 80009aa:	b085      	sub	sp, #20
 80009ac:	af00      	add	r7, sp, #0
 80009ae:	6078      	str	r0, [r7, #4]
  HAL_StatusTypeDef tmp_hal_status = HAL_OK;
 80009b0:	230f      	movs	r3, #15
 80009b2:	18fb      	adds	r3, r7, r3
 80009b4:	2200      	movs	r2, #0
 80009b6:	701a      	strb	r2, [r3, #0]

  /* Check the parameters */
  assert_param(IS_ADC_ALL_INSTANCE(hadc->Instance));

  /* Perform ADC enable and conversion start if no conversion is on going */
  if (ADC_IS_CONVERSION_ONGOING_REGULAR(hadc) == RESET)
 80009b8:	687b      	ldr	r3, [r7, #4]
 80009ba:	681b      	ldr	r3, [r3, #0]
 80009bc:	689b      	ldr	r3, [r3, #8]
 80009be:	2204      	movs	r2, #4
 80009c0:	4013      	ands	r3, r2
 80009c2:	d138      	bne.n	8000a36 <HAL_ADC_Start+0x8e>
  {
    /* Process locked */
    __HAL_LOCK(hadc);
 80009c4:	687b      	ldr	r3, [r7, #4]
 80009c6:	2250      	movs	r2, #80	@ 0x50
 80009c8:	5c9b      	ldrb	r3, [r3, r2]
 80009ca:	2b01      	cmp	r3, #1
 80009cc:	d101      	bne.n	80009d2 <HAL_ADC_Start+0x2a>
 80009ce:	2302      	movs	r3, #2
 80009d0:	e038      	b.n	8000a44 <HAL_ADC_Start+0x9c>
 80009d2:	687b      	ldr	r3, [r7, #4]
 80009d4:	2250      	movs	r2, #80	@ 0x50
 80009d6:	2101      	movs	r1, #1
 80009d8:	5499      	strb	r1, [r3, r2]

    /* Enable the ADC peripheral */
    /* If low power mode AutoPowerOff is enabled, power-on/off phases are     */
    /* performed automatically by hardware.                                   */
    if (hadc->Init.LowPowerAutoPowerOff != ENABLE)
 80009da:	687b      	ldr	r3, [r7, #4]
 80009dc:	69db      	ldr	r3, [r3, #28]
 80009de:	2b01      	cmp	r3, #1
 80009e0:	d007      	beq.n	80009f2 <HAL_ADC_Start+0x4a>
    {
      tmp_hal_status = ADC_Enable(hadc);
 80009e2:	230f      	movs	r3, #15
 80009e4:	18fc      	adds	r4, r7, r3
 80009e6:	687b      	ldr	r3, [r7, #4]
 80009e8:	0018      	movs	r0, r3
 80009ea:	f000 f99f 	bl	8000d2c <ADC_Enable>
 80009ee:	0003      	movs	r3, r0
 80009f0:	7023      	strb	r3, [r4, #0]
    }

    /* Start conversion if ADC is effectively enabled */
    if (tmp_hal_status == HAL_OK)
 80009f2:	230f      	movs	r3, #15
 80009f4:	18fb      	adds	r3, r7, r3
 80009f6:	781b      	ldrb	r3, [r3, #0]
 80009f8:	2b00      	cmp	r3, #0
 80009fa:	d120      	bne.n	8000a3e <HAL_ADC_Start+0x96>
    {
      /* Set ADC state                                                        */
      /* - Clear state bitfield related to regular group conversion results   */
      /* - Set state bitfield related to regular operation                    */
      ADC_STATE_CLR_SET(hadc->State,
 80009fc:	687b      	ldr	r3, [r7, #4]
 80009fe:	6d5b      	ldr	r3, [r3, #84]	@ 0x54
 8000a00:	4a12      	ldr	r2, [pc, #72]	@ (8000a4c <HAL_ADC_Start+0xa4>)
 8000a02:	4013      	ands	r3, r2
 8000a04:	2280      	movs	r2, #128	@ 0x80
 8000a06:	0052      	lsls	r2, r2, #1
 8000a08:	431a      	orrs	r2, r3
 8000a0a:	687b      	ldr	r3, [r7, #4]
 8000a0c:	655a      	str	r2, [r3, #84]	@ 0x54
                        HAL_ADC_STATE_READY | HAL_ADC_STATE_REG_EOC | HAL_ADC_STATE_REG_OVR | HAL_ADC_STATE_REG_EOSMP,
                        HAL_ADC_STATE_REG_BUSY);

      /* Reset ADC all error code fields */
      ADC_CLEAR_ERRORCODE(hadc);
 8000a0e:	687b      	ldr	r3, [r7, #4]
 8000a10:	2200      	movs	r2, #0
 8000a12:	659a      	str	r2, [r3, #88]	@ 0x58

      /* Process unlocked */
      /* Unlock before starting ADC conversions: in case of potential         */
      /* interruption, to let the process to ADC IRQ Handler.                 */
      __HAL_UNLOCK(hadc);
 8000a14:	687b      	ldr	r3, [r7, #4]
 8000a16:	2250      	movs	r2, #80	@ 0x50
 8000a18:	2100      	movs	r1, #0
 8000a1a:	5499      	strb	r1, [r3, r2]

      /* Clear regular group conversion flag and overrun flag */
      /* (To ensure of no unknown state from potential previous ADC           */
      /* operations)                                                          */
      __HAL_ADC_CLEAR_FLAG(hadc, (ADC_FLAG_EOC | ADC_FLAG_EOS | ADC_FLAG_OVR));
 8000a1c:	687b      	ldr	r3, [r7, #4]
 8000a1e:	681b      	ldr	r3, [r3, #0]
 8000a20:	221c      	movs	r2, #28
 8000a22:	601a      	str	r2, [r3, #0]

      /* Enable conversion of regular group.                                  */
      /* If software start has been selected, conversion starts immediately.  */
      /* If external trigger has been selected, conversion will start at next */
      /* trigger event.                                                       */
      hadc->Instance->CR |= ADC_CR_ADSTART;
 8000a24:	687b      	ldr	r3, [r7, #4]
 8000a26:	681b      	ldr	r3, [r3, #0]
 8000a28:	689a      	ldr	r2, [r3, #8]
 8000a2a:	687b      	ldr	r3, [r7, #4]
 8000a2c:	681b      	ldr	r3, [r3, #0]
 8000a2e:	2104      	movs	r1, #4
 8000a30:	430a      	orrs	r2, r1
 8000a32:	609a      	str	r2, [r3, #8]
 8000a34:	e003      	b.n	8000a3e <HAL_ADC_Start+0x96>
    }
  }
  else
  {
    tmp_hal_status = HAL_BUSY;
 8000a36:	230f      	movs	r3, #15
 8000a38:	18fb      	adds	r3, r7, r3
 8000a3a:	2202      	movs	r2, #2
 8000a3c:	701a      	strb	r2, [r3, #0]
  }

  /* Return function status */
  return tmp_hal_status;
 8000a3e:	230f      	movs	r3, #15
 8000a40:	18fb      	adds	r3, r7, r3
 8000a42:	781b      	ldrb	r3, [r3, #0]
}
 8000a44:	0018      	movs	r0, r3
 8000a46:	46bd      	mov	sp, r7
 8000a48:	b005      	add	sp, #20
 8000a4a:	bd90      	pop	{r4, r7, pc}
 8000a4c:	fffff0fe 	.word	0xfffff0fe

08000a50 <HAL_ADC_Stop>:
  *         case of auto_injection mode), disable ADC peripheral.
  * @param  hadc ADC handle
  * @retval HAL status.
  */
HAL_StatusTypeDef HAL_ADC_Stop(ADC_HandleTypeDef *hadc)
{
 8000a50:	b5b0      	push	{r4, r5, r7, lr}
 8000a52:	b084      	sub	sp, #16
 8000a54:	af00      	add	r7, sp, #0
 8000a56:	6078      	str	r0, [r7, #4]
  HAL_StatusTypeDef tmp_hal_status = HAL_OK;
 8000a58:	230f      	movs	r3, #15
 8000a5a:	18fb      	adds	r3, r7, r3
 8000a5c:	2200      	movs	r2, #0
 8000a5e:	701a      	strb	r2, [r3, #0]

  /* Check the parameters */
  assert_param(IS_ADC_ALL_INSTANCE(hadc->Instance));

  /* Process locked */
  __HAL_LOCK(hadc);
 8000a60:	687b      	ldr	r3, [r7, #4]
 8000a62:	2250      	movs	r2, #80	@ 0x50
 8000a64:	5c9b      	ldrb	r3, [r3, r2]
 8000a66:	2b01      	cmp	r3, #1
 8000a68:	d101      	bne.n	8000a6e <HAL_ADC_Stop+0x1e>
 8000a6a:	2302      	movs	r3, #2
 8000a6c:	e029      	b.n	8000ac2 <HAL_ADC_Stop+0x72>
 8000a6e:	687b      	ldr	r3, [r7, #4]
 8000a70:	2250      	movs	r2, #80	@ 0x50
 8000a72:	2101      	movs	r1, #1
 8000a74:	5499      	strb	r1, [r3, r2]

  /* 1. Stop potential conversion on going, on ADC group regular */
  tmp_hal_status = ADC_ConversionStop(hadc);
 8000a76:	250f      	movs	r5, #15
 8000a78:	197c      	adds	r4, r7, r5
 8000a7a:	687b      	ldr	r3, [r7, #4]
 8000a7c:	0018      	movs	r0, r3
 8000a7e:	f000 fa24 	bl	8000eca <ADC_ConversionStop>
 8000a82:	0003      	movs	r3, r0
 8000a84:	7023      	strb	r3, [r4, #0]

  /* Disable ADC peripheral if conversions are effectively stopped */
  if (tmp_hal_status == HAL_OK)
 8000a86:	197b      	adds	r3, r7, r5
 8000a88:	781b      	ldrb	r3, [r3, #0]
 8000a8a:	2b00      	cmp	r3, #0
 8000a8c:	d112      	bne.n	8000ab4 <HAL_ADC_Stop+0x64>
  {
    /* 2. Disable the ADC peripheral */
    tmp_hal_status = ADC_Disable(hadc);
 8000a8e:	197c      	adds	r4, r7, r5
 8000a90:	687b      	ldr	r3, [r7, #4]
 8000a92:	0018      	movs	r0, r3
 8000a94:	f000 f9b2 	bl	8000dfc <ADC_Disable>
 8000a98:	0003      	movs	r3, r0
 8000a9a:	7023      	strb	r3, [r4, #0]

    /* Check if ADC is effectively disabled */
    if (tmp_hal_status == HAL_OK)
 8000a9c:	197b      	adds	r3, r7, r5
 8000a9e:	781b      	ldrb	r3, [r3, #0]
 8000aa0:	2b00      	cmp	r3, #0
 8000aa2:	d107      	bne.n	8000ab4 <HAL_ADC_Stop+0x64>
    {
      /* Set ADC state */
      ADC_STATE_CLR_SET(hadc->State,
 8000aa4:	687b      	ldr	r3, [r7, #4]
 8000aa6:	6d5b      	ldr	r3, [r3, #84]	@ 0x54
 8000aa8:	4a08      	ldr	r2, [pc, #32]	@ (8000acc <HAL_ADC_Stop+0x7c>)
 8000aaa:	4013      	ands	r3, r2
 8000aac:	2201      	movs	r2, #1
 8000aae:	431a      	orrs	r2, r3
 8000ab0:	687b      	ldr	r3, [r7, #4]
 8000ab2:	655a      	str	r2, [r3, #84]	@ 0x54
                        HAL_ADC_STATE_READY);
    }
  }

  /* Process unlocked */
  __HAL_UNLOCK(hadc);
 8000ab4:	687b      	ldr	r3, [r7, #4]
 8000ab6:	2250      	movs	r2, #80	@ 0x50
 8000ab8:	2100      	movs	r1, #0
 8000aba:	5499      	strb	r1, [r3, r2]

  /* Return function status */
  return tmp_hal_status;
 8000abc:	230f      	movs	r3, #15
 8000abe:	18fb      	adds	r3, r7, r3
 8000ac0:	781b      	ldrb	r3, [r3, #0]
}
 8000ac2:	0018      	movs	r0, r3
 8000ac4:	46bd      	mov	sp, r7
 8000ac6:	b004      	add	sp, #16
 8000ac8:	bdb0      	pop	{r4, r5, r7, pc}
 8000aca:	46c0      	nop			@ (mov r8, r8)
 8000acc:	fffffefe 	.word	0xfffffefe

08000ad0 <HAL_ADC_PollForConversion>:
  * @param  hadc ADC handle
  * @param  Timeout Timeout value in millisecond.
  * @retval HAL status
  */
HAL_StatusTypeDef HAL_ADC_PollForConversion(ADC_HandleTypeDef *hadc, uint32_t Timeout)
{
 8000ad0:	b580      	push	{r7, lr}
 8000ad2:	b084      	sub	sp, #16
 8000ad4:	af00      	add	r7, sp, #0
 8000ad6:	6078      	str	r0, [r7, #4]
 8000ad8:	6039      	str	r1, [r7, #0]
  uint32_t tickstart = 0;
 8000ada:	2300      	movs	r3, #0
 8000adc:	60bb      	str	r3, [r7, #8]
  uint32_t tmp_Flag_EOC   = 0x00;
 8000ade:	2300      	movs	r3, #0
 8000ae0:	60fb      	str	r3, [r7, #12]

  /* Check the parameters */
  assert_param(IS_ADC_ALL_INSTANCE(hadc->Instance));

  /* If end of conversion selected to end of sequence conversions */
  if (hadc->Init.EOCSelection == ADC_EOC_SEQ_CONV)
 8000ae2:	687b      	ldr	r3, [r7, #4]
 8000ae4:	695b      	ldr	r3, [r3, #20]
 8000ae6:	2b08      	cmp	r3, #8
 8000ae8:	d102      	bne.n	8000af0 <HAL_ADC_PollForConversion+0x20>
  {
    tmp_Flag_EOC = ADC_FLAG_EOS;
 8000aea:	2308      	movs	r3, #8
 8000aec:	60fb      	str	r3, [r7, #12]
 8000aee:	e014      	b.n	8000b1a <HAL_ADC_PollForConversion+0x4a>
    /* each conversion:                                                       */
    /* Particular case is ADC configured in DMA mode and ADC sequencer with   */
    /* several ranks and polling for end of each conversion.                  */
    /* For code simplicity sake, this particular case is generalized to       */
    /* ADC configured in DMA mode and and polling for end of each conversion. */
    if (HAL_IS_BIT_SET(hadc->Instance->CFGR1, ADC_CFGR1_DMAEN))
 8000af0:	687b      	ldr	r3, [r7, #4]
 8000af2:	681b      	ldr	r3, [r3, #0]
 8000af4:	68db      	ldr	r3, [r3, #12]
 8000af6:	2201      	movs	r2, #1
 8000af8:	4013      	ands	r3, r2
 8000afa:	2b01      	cmp	r3, #1
 8000afc:	d10b      	bne.n	8000b16 <HAL_ADC_PollForConversion+0x46>
    {
      /* Update ADC state machine to error */
      SET_BIT(hadc->State, HAL_ADC_STATE_ERROR_CONFIG);
 8000afe:	687b      	ldr	r3, [r7, #4]
 8000b00:	6d5b      	ldr	r3, [r3, #84]	@ 0x54
 8000b02:	2220      	movs	r2, #32
 8000b04:	431a      	orrs	r2, r3
 8000b06:	687b      	ldr	r3, [r7, #4]
 8000b08:	655a      	str	r2, [r3, #84]	@ 0x54

      /* Process unlocked */
      __HAL_UNLOCK(hadc);
 8000b0a:	687b      	ldr	r3, [r7, #4]
 8000b0c:	2250      	movs	r2, #80	@ 0x50
 8000b0e:	2100      	movs	r1, #0
 8000b10:	5499      	strb	r1, [r3, r2]

      return HAL_ERROR;
 8000b12:	2301      	movs	r3, #1
 8000b14:	e072      	b.n	8000bfc <HAL_ADC_PollForConversion+0x12c>
    }
    else
    {
      tmp_Flag_EOC = (ADC_FLAG_EOC | ADC_FLAG_EOS);
 8000b16:	230c      	movs	r3, #12
 8000b18:	60fb      	str	r3, [r7, #12]
    }
  }

  /* Get tick count */
  tickstart = HAL_GetTick();
 8000b1a:	f7ff fdc7 	bl	80006ac <HAL_GetTick>
 8000b1e:	0003      	movs	r3, r0
 8000b20:	60bb      	str	r3, [r7, #8]

  /* Wait until End of unitary conversion or sequence conversions flag is raised */
  while (HAL_IS_BIT_CLR(hadc->Instance->ISR, tmp_Flag_EOC))
 8000b22:	e01f      	b.n	8000b64 <HAL_ADC_PollForConversion+0x94>
  {
    /* Check if timeout is disabled (set to infinite wait) */
    if (Timeout != HAL_MAX_DELAY)
 8000b24:	683b      	ldr	r3, [r7, #0]
 8000b26:	3301      	adds	r3, #1
 8000b28:	d01c      	beq.n	8000b64 <HAL_ADC_PollForConversion+0x94>
    {
      if ((Timeout == 0U) || ((HAL_GetTick() - tickstart) > Timeout))
 8000b2a:	683b      	ldr	r3, [r7, #0]
 8000b2c:	2b00      	cmp	r3, #0
 8000b2e:	d007      	beq.n	8000b40 <HAL_ADC_PollForConversion+0x70>
 8000b30:	f7ff fdbc 	bl	80006ac <HAL_GetTick>
 8000b34:	0002      	movs	r2, r0
 8000b36:	68bb      	ldr	r3, [r7, #8]
 8000b38:	1ad3      	subs	r3, r2, r3
 8000b3a:	683a      	ldr	r2, [r7, #0]
 8000b3c:	429a      	cmp	r2, r3
 8000b3e:	d211      	bcs.n	8000b64 <HAL_ADC_PollForConversion+0x94>
      {
        /* New check to avoid false timeout detection in case of preemption */
        if (HAL_IS_BIT_CLR(hadc->Instance->ISR, tmp_Flag_EOC))
 8000b40:	687b      	ldr	r3, [r7, #4]
 8000b42:	681b      	ldr	r3, [r3, #0]
 8000b44:	681b      	ldr	r3, [r3, #0]
 8000b46:	68fa      	ldr	r2, [r7, #12]
 8000b48:	4013      	ands	r3, r2
 8000b4a:	d10b      	bne.n	8000b64 <HAL_ADC_PollForConversion+0x94>
        {
          /* Update ADC state machine to timeout */
          SET_BIT(hadc->State, HAL_ADC_STATE_TIMEOUT);
 8000b4c:	687b      	ldr	r3, [r7, #4]
 8000b4e:	6d5b      	ldr	r3, [r3, #84]	@ 0x54
 8000b50:	2204      	movs	r2, #4
 8000b52:	431a      	orrs	r2, r3
 8000b54:	687b      	ldr	r3, [r7, #4]
 8000b56:	655a      	str	r2, [r3, #84]	@ 0x54

          /* Process unlocked */
          __HAL_UNLOCK(hadc);
 8000b58:	687b      	ldr	r3, [r7, #4]
 8000b5a:	2250      	movs	r2, #80	@ 0x50
 8000b5c:	2100      	movs	r1, #0
 8000b5e:	5499      	strb	r1, [r3, r2]

          return HAL_TIMEOUT;
 8000b60:	2303      	movs	r3, #3
 8000b62:	e04b      	b.n	8000bfc <HAL_ADC_PollForConversion+0x12c>
  while (HAL_IS_BIT_CLR(hadc->Instance->ISR, tmp_Flag_EOC))
 8000b64:	687b      	ldr	r3, [r7, #4]
 8000b66:	681b      	ldr	r3, [r3, #0]
 8000b68:	681b      	ldr	r3, [r3, #0]
 8000b6a:	68fa      	ldr	r2, [r7, #12]
 8000b6c:	4013      	ands	r3, r2
 8000b6e:	d0d9      	beq.n	8000b24 <HAL_ADC_PollForConversion+0x54>
      }
    }
  }

  /* Update ADC state machine */
  SET_BIT(hadc->State, HAL_ADC_STATE_REG_EOC);
 8000b70:	687b      	ldr	r3, [r7, #4]
 8000b72:	6d5b      	ldr	r3, [r3, #84]	@ 0x54
 8000b74:	2280      	movs	r2, #128	@ 0x80
 8000b76:	0092      	lsls	r2, r2, #2
 8000b78:	431a      	orrs	r2, r3
 8000b7a:	687b      	ldr	r3, [r7, #4]
 8000b7c:	655a      	str	r2, [r3, #84]	@ 0x54

  /* Determine whether any further conversion upcoming on group regular       */
  /* by external trigger, continuous mode or scan sequence on going.          */
  if (ADC_IS_SOFTWARE_START_REGULAR(hadc)        &&
 8000b7e:	687b      	ldr	r3, [r7, #4]
 8000b80:	681b      	ldr	r3, [r3, #0]
 8000b82:	68da      	ldr	r2, [r3, #12]
 8000b84:	23c0      	movs	r3, #192	@ 0xc0
 8000b86:	011b      	lsls	r3, r3, #4
 8000b88:	4013      	ands	r3, r2
 8000b8a:	d12e      	bne.n	8000bea <HAL_ADC_PollForConversion+0x11a>
      (hadc->Init.ContinuousConvMode == DISABLE))
 8000b8c:	687b      	ldr	r3, [r7, #4]
 8000b8e:	2220      	movs	r2, #32
 8000b90:	5c9b      	ldrb	r3, [r3, r2]
  if (ADC_IS_SOFTWARE_START_REGULAR(hadc)        &&
 8000b92:	2b00      	cmp	r3, #0
 8000b94:	d129      	bne.n	8000bea <HAL_ADC_PollForConversion+0x11a>
  {
    /* If End of Sequence is reached, disable interrupts */
    if (__HAL_ADC_GET_FLAG(hadc, ADC_FLAG_EOS))
 8000b96:	687b      	ldr	r3, [r7, #4]
 8000b98:	681b      	ldr	r3, [r3, #0]
 8000b9a:	681b      	ldr	r3, [r3, #0]
 8000b9c:	2208      	movs	r2, #8
 8000b9e:	4013      	ands	r3, r2
 8000ba0:	2b08      	cmp	r3, #8
 8000ba2:	d122      	bne.n	8000bea <HAL_ADC_PollForConversion+0x11a>
    {
      /* Allowed to modify bits ADC_IT_EOC/ADC_IT_EOS only if bit             */
      /* ADSTART==0 (no conversion on going)                                  */
      if (ADC_IS_CONVERSION_ONGOING_REGULAR(hadc) == RESET)
 8000ba4:	687b      	ldr	r3, [r7, #4]
 8000ba6:	681b      	ldr	r3, [r3, #0]
 8000ba8:	689b      	ldr	r3, [r3, #8]
 8000baa:	2204      	movs	r2, #4
 8000bac:	4013      	ands	r3, r2
 8000bae:	d110      	bne.n	8000bd2 <HAL_ADC_PollForConversion+0x102>
      {
        /* Disable ADC end of single conversion interrupt on group regular */
        /* Note: Overrun interrupt was enabled with EOC interrupt in          */
        /* HAL_Start_IT(), but is not disabled here because can be used       */
        /* by overrun IRQ process below.                                      */
        __HAL_ADC_DISABLE_IT(hadc, ADC_IT_EOC | ADC_IT_EOS);
 8000bb0:	687b      	ldr	r3, [r7, #4]
 8000bb2:	681b      	ldr	r3, [r3, #0]
 8000bb4:	685a      	ldr	r2, [r3, #4]
 8000bb6:	687b      	ldr	r3, [r7, #4]
 8000bb8:	681b      	ldr	r3, [r3, #0]
 8000bba:	210c      	movs	r1, #12
 8000bbc:	438a      	bics	r2, r1
 8000bbe:	605a      	str	r2, [r3, #4]

        /* Set ADC state */
        ADC_STATE_CLR_SET(hadc->State,
 8000bc0:	687b      	ldr	r3, [r7, #4]
 8000bc2:	6d5b      	ldr	r3, [r3, #84]	@ 0x54
 8000bc4:	4a0f      	ldr	r2, [pc, #60]	@ (8000c04 <HAL_ADC_PollForConversion+0x134>)
 8000bc6:	4013      	ands	r3, r2
 8000bc8:	2201      	movs	r2, #1
 8000bca:	431a      	orrs	r2, r3
 8000bcc:	687b      	ldr	r3, [r7, #4]
 8000bce:	655a      	str	r2, [r3, #84]	@ 0x54
 8000bd0:	e00b      	b.n	8000bea <HAL_ADC_PollForConversion+0x11a>
                          HAL_ADC_STATE_READY);
      }
      else
      {
        /* Change ADC state to error state */
        SET_BIT(hadc->State, HAL_ADC_STATE_ERROR_CONFIG);
 8000bd2:	687b      	ldr	r3, [r7, #4]
 8000bd4:	6d5b      	ldr	r3, [r3, #84]	@ 0x54
 8000bd6:	2220      	movs	r2, #32
 8000bd8:	431a      	orrs	r2, r3
 8000bda:	687b      	ldr	r3, [r7, #4]
 8000bdc:	655a      	str	r2, [r3, #84]	@ 0x54

        /* Set ADC error code to ADC peripheral internal error */
        SET_BIT(hadc->ErrorCode, HAL_ADC_ERROR_INTERNAL);
 8000bde:	687b      	ldr	r3, [r7, #4]
 8000be0:	6d9b      	ldr	r3, [r3, #88]	@ 0x58
 8000be2:	2201      	movs	r2, #1
 8000be4:	431a      	orrs	r2, r3
 8000be6:	687b      	ldr	r3, [r7, #4]
 8000be8:	659a      	str	r2, [r3, #88]	@ 0x58
  }

  /* Clear end of conversion flag of regular group if low power feature       */
  /* "LowPowerAutoWait " is disabled, to not interfere with this feature      */
  /* until data register is read using function HAL_ADC_GetValue().           */
  if (hadc->Init.LowPowerAutoWait == DISABLE)
 8000bea:	687b      	ldr	r3, [r7, #4]
 8000bec:	699b      	ldr	r3, [r3, #24]
 8000bee:	2b00      	cmp	r3, #0
 8000bf0:	d103      	bne.n	8000bfa <HAL_ADC_PollForConversion+0x12a>
  {
    /* Clear regular group conversion flag */
    __HAL_ADC_CLEAR_FLAG(hadc, (ADC_FLAG_EOC | ADC_FLAG_EOS));
 8000bf2:	687b      	ldr	r3, [r7, #4]
 8000bf4:	681b      	ldr	r3, [r3, #0]
 8000bf6:	220c      	movs	r2, #12
 8000bf8:	601a      	str	r2, [r3, #0]
  }

  /* Return function status */
  return HAL_OK;
 8000bfa:	2300      	movs	r3, #0
}
 8000bfc:	0018      	movs	r0, r3
 8000bfe:	46bd      	mov	sp, r7
 8000c00:	b004      	add	sp, #16
 8000c02:	bd80      	pop	{r7, pc}
 8000c04:	fffffefe 	.word	0xfffffefe

08000c08 <HAL_ADC_GetValue>:
  *         or @ref __HAL_ADC_CLEAR_FLAG(&hadc, ADC_FLAG_EOS).
  * @param  hadc ADC handle
  * @retval ADC group regular conversion data
  */
uint32_t HAL_ADC_GetValue(ADC_HandleTypeDef *hadc)
{
 8000c08:	b580      	push	{r7, lr}
 8000c0a:	b082      	sub	sp, #8
 8000c0c:	af00      	add	r7, sp, #0
 8000c0e:	6078      	str	r0, [r7, #4]

  /* Note: EOC flag is not cleared here by software because automatically     */
  /*       cleared by hardware when reading register DR.                      */

  /* Return ADC converted value */
  return hadc->Instance->DR;
 8000c10:	687b      	ldr	r3, [r7, #4]
 8000c12:	681b      	ldr	r3, [r3, #0]
 8000c14:	6c1b      	ldr	r3, [r3, #64]	@ 0x40
}
 8000c16:	0018      	movs	r0, r3
 8000c18:	46bd      	mov	sp, r7
 8000c1a:	b002      	add	sp, #8
 8000c1c:	bd80      	pop	{r7, pc}
	...

08000c20 <HAL_ADC_ConfigChannel>:
  * @param  hadc ADC handle
  * @param  sConfig Structure of ADC channel assigned to ADC group regular.
  * @retval HAL status
  */
HAL_StatusTypeDef HAL_ADC_ConfigChannel(ADC_HandleTypeDef *hadc, ADC_ChannelConfTypeDef *sConfig)
{
 8000c20:	b580      	push	{r7, lr}
 8000c22:	b082      	sub	sp, #8
 8000c24:	af00      	add	r7, sp, #0
 8000c26:	6078      	str	r0, [r7, #4]
 8000c28:	6039      	str	r1, [r7, #0]
  assert_param(IS_ADC_ALL_INSTANCE(hadc->Instance));
  assert_param(IS_ADC_CHANNEL(sConfig->Channel));
  assert_param(IS_ADC_RANK(sConfig->Rank));

  /* Process locked */
  __HAL_LOCK(hadc);
 8000c2a:	687b      	ldr	r3, [r7, #4]
 8000c2c:	2250      	movs	r2, #80	@ 0x50
 8000c2e:	5c9b      	ldrb	r3, [r3, r2]
 8000c30:	2b01      	cmp	r3, #1
 8000c32:	d101      	bne.n	8000c38 <HAL_ADC_ConfigChannel+0x18>
 8000c34:	2302      	movs	r3, #2
 8000c36:	e06c      	b.n	8000d12 <HAL_ADC_ConfigChannel+0xf2>
 8000c38:	687b      	ldr	r3, [r7, #4]
 8000c3a:	2250      	movs	r2, #80	@ 0x50
 8000c3c:	2101      	movs	r1, #1
 8000c3e:	5499      	strb	r1, [r3, r2]
  /* Parameters update conditioned to ADC state:                              */
  /* Parameters that can be updated when ADC is disabled or enabled without   */
  /* conversion on going on regular group:                                    */
  /*  - Channel number                                                        */
  /*  - Management of internal measurement channels: Vbat/VrefInt/TempSensor  */
  if (ADC_IS_CONVERSION_ONGOING_REGULAR(hadc) != RESET)
 8000c40:	687b      	ldr	r3, [r7, #4]
 8000c42:	681b      	ldr	r3, [r3, #0]
 8000c44:	689b      	ldr	r3, [r3, #8]
 8000c46:	2204      	movs	r2, #4
 8000c48:	4013      	ands	r3, r2
 8000c4a:	d00b      	beq.n	8000c64 <HAL_ADC_ConfigChannel+0x44>
  {
    /* Update ADC state machine to error */
    SET_BIT(hadc->State, HAL_ADC_STATE_ERROR_CONFIG);
 8000c4c:	687b      	ldr	r3, [r7, #4]
 8000c4e:	6d5b      	ldr	r3, [r3, #84]	@ 0x54
 8000c50:	2220      	movs	r2, #32
 8000c52:	431a      	orrs	r2, r3
 8000c54:	687b      	ldr	r3, [r7, #4]
 8000c56:	655a      	str	r2, [r3, #84]	@ 0x54
    /* Process unlocked */
    __HAL_UNLOCK(hadc);
 8000c58:	687b      	ldr	r3, [r7, #4]
 8000c5a:	2250      	movs	r2, #80	@ 0x50
 8000c5c:	2100      	movs	r1, #0
 8000c5e:	5499      	strb	r1, [r3, r2]
    return HAL_ERROR;
 8000c60:	2301      	movs	r3, #1
 8000c62:	e056      	b.n	8000d12 <HAL_ADC_ConfigChannel+0xf2>
  }

  if (sConfig->Rank != ADC_RANK_NONE)
 8000c64:	683b      	ldr	r3, [r7, #0]
 8000c66:	685b      	ldr	r3, [r3, #4]
 8000c68:	4a2c      	ldr	r2, [pc, #176]	@ (8000d1c <HAL_ADC_ConfigChannel+0xfc>)
 8000c6a:	4293      	cmp	r3, r2
 8000c6c:	d028      	beq.n	8000cc0 <HAL_ADC_ConfigChannel+0xa0>
  {
    /* Enable selected channels */
    hadc->Instance->CHSELR |= (uint32_t)(sConfig->Channel & ADC_CHANNEL_MASK);
 8000c6e:	687b      	ldr	r3, [r7, #4]
 8000c70:	681b      	ldr	r3, [r3, #0]
 8000c72:	6a99      	ldr	r1, [r3, #40]	@ 0x28
 8000c74:	683b      	ldr	r3, [r7, #0]
 8000c76:	681b      	ldr	r3, [r3, #0]
 8000c78:	035b      	lsls	r3, r3, #13
 8000c7a:	0b5a      	lsrs	r2, r3, #13
 8000c7c:	687b      	ldr	r3, [r7, #4]
 8000c7e:	681b      	ldr	r3, [r3, #0]
 8000c80:	430a      	orrs	r2, r1
 8000c82:	629a      	str	r2, [r3, #40]	@ 0x28
    /* dedicated internal buffers and path.                                     */

#if defined(ADC_CCR_TSEN)
    /* If Temperature sensor channel is selected, then enable the internal      */
    /* buffers and path  */
    if (((sConfig->Channel & ADC_CHANNEL_MASK) & ADC_CHANNEL_TEMPSENSOR) == (ADC_CHANNEL_TEMPSENSOR & ADC_CHANNEL_MASK))
 8000c84:	683b      	ldr	r3, [r7, #0]
 8000c86:	681a      	ldr	r2, [r3, #0]
 8000c88:	2380      	movs	r3, #128	@ 0x80
 8000c8a:	02db      	lsls	r3, r3, #11
 8000c8c:	4013      	ands	r3, r2
 8000c8e:	d009      	beq.n	8000ca4 <HAL_ADC_ConfigChannel+0x84>
    {
      ADC->CCR |= ADC_CCR_TSEN;
 8000c90:	4b23      	ldr	r3, [pc, #140]	@ (8000d20 <HAL_ADC_ConfigChannel+0x100>)
 8000c92:	681a      	ldr	r2, [r3, #0]
 8000c94:	4b22      	ldr	r3, [pc, #136]	@ (8000d20 <HAL_ADC_ConfigChannel+0x100>)
 8000c96:	2180      	movs	r1, #128	@ 0x80
 8000c98:	0409      	lsls	r1, r1, #16
 8000c9a:	430a      	orrs	r2, r1
 8000c9c:	601a      	str	r2, [r3, #0]

      /* Delay for temperature sensor stabilization time */
      ADC_DelayMicroSecond(ADC_TEMPSENSOR_DELAY_US);
 8000c9e:	200a      	movs	r0, #10
 8000ca0:	f000 f960 	bl	8000f64 <ADC_DelayMicroSecond>
    }
#endif

    /* If VRefInt channel is selected, then enable the internal buffers and path   */
    if (((sConfig->Channel & ADC_CHANNEL_MASK) & ADC_CHANNEL_VREFINT) == (ADC_CHANNEL_VREFINT & ADC_CHANNEL_MASK))
 8000ca4:	683b      	ldr	r3, [r7, #0]
 8000ca6:	681a      	ldr	r2, [r3, #0]
 8000ca8:	2380      	movs	r3, #128	@ 0x80
 8000caa:	029b      	lsls	r3, r3, #10
 8000cac:	4013      	ands	r3, r2
 8000cae:	d02b      	beq.n	8000d08 <HAL_ADC_ConfigChannel+0xe8>
    {
      ADC->CCR |= ADC_CCR_VREFEN;
 8000cb0:	4b1b      	ldr	r3, [pc, #108]	@ (8000d20 <HAL_ADC_ConfigChannel+0x100>)
 8000cb2:	681a      	ldr	r2, [r3, #0]
 8000cb4:	4b1a      	ldr	r3, [pc, #104]	@ (8000d20 <HAL_ADC_ConfigChannel+0x100>)
 8000cb6:	2180      	movs	r1, #128	@ 0x80
 8000cb8:	03c9      	lsls	r1, r1, #15
 8000cba:	430a      	orrs	r2, r1
 8000cbc:	601a      	str	r2, [r3, #0]
 8000cbe:	e023      	b.n	8000d08 <HAL_ADC_ConfigChannel+0xe8>
  }
  else
  {
    /* Regular sequence configuration */
    /* Reset the channel selection register from the selected channel */
    hadc->Instance->CHSELR &= ~((uint32_t)(sConfig->Channel & ADC_CHANNEL_MASK));
 8000cc0:	687b      	ldr	r3, [r7, #4]
 8000cc2:	681b      	ldr	r3, [r3, #0]
 8000cc4:	6a9a      	ldr	r2, [r3, #40]	@ 0x28
 8000cc6:	683b      	ldr	r3, [r7, #0]
 8000cc8:	681b      	ldr	r3, [r3, #0]
 8000cca:	035b      	lsls	r3, r3, #13
 8000ccc:	0b5b      	lsrs	r3, r3, #13
 8000cce:	43d9      	mvns	r1, r3
 8000cd0:	687b      	ldr	r3, [r7, #4]
 8000cd2:	681b      	ldr	r3, [r3, #0]
 8000cd4:	400a      	ands	r2, r1
 8000cd6:	629a      	str	r2, [r3, #40]	@ 0x28

    /* Management of internal measurement channels: VrefInt/TempSensor/Vbat */
    /* internal measurement paths disable: If internal channel selected,    */
    /* disable dedicated internal buffers and path.                         */
#if defined(ADC_CCR_TSEN)
    if (((sConfig->Channel & ADC_CHANNEL_MASK) & ADC_CHANNEL_TEMPSENSOR) == (ADC_CHANNEL_TEMPSENSOR & ADC_CHANNEL_MASK))
 8000cd8:	683b      	ldr	r3, [r7, #0]
 8000cda:	681a      	ldr	r2, [r3, #0]
 8000cdc:	2380      	movs	r3, #128	@ 0x80
 8000cde:	02db      	lsls	r3, r3, #11
 8000ce0:	4013      	ands	r3, r2
 8000ce2:	d005      	beq.n	8000cf0 <HAL_ADC_ConfigChannel+0xd0>
    {
      ADC->CCR &= ~ADC_CCR_TSEN;
 8000ce4:	4b0e      	ldr	r3, [pc, #56]	@ (8000d20 <HAL_ADC_ConfigChannel+0x100>)
 8000ce6:	681a      	ldr	r2, [r3, #0]
 8000ce8:	4b0d      	ldr	r3, [pc, #52]	@ (8000d20 <HAL_ADC_ConfigChannel+0x100>)
 8000cea:	490e      	ldr	r1, [pc, #56]	@ (8000d24 <HAL_ADC_ConfigChannel+0x104>)
 8000cec:	400a      	ands	r2, r1
 8000cee:	601a      	str	r2, [r3, #0]
    }
#endif

    /* If VRefInt channel is selected, then enable the internal buffers and path   */
    if (((sConfig->Channel & ADC_CHANNEL_MASK) & ADC_CHANNEL_VREFINT) == (ADC_CHANNEL_VREFINT & ADC_CHANNEL_MASK))
 8000cf0:	683b      	ldr	r3, [r7, #0]
 8000cf2:	681a      	ldr	r2, [r3, #0]
 8000cf4:	2380      	movs	r3, #128	@ 0x80
 8000cf6:	029b      	lsls	r3, r3, #10
 8000cf8:	4013      	ands	r3, r2
 8000cfa:	d005      	beq.n	8000d08 <HAL_ADC_ConfigChannel+0xe8>
    {
      ADC->CCR &= ~ADC_CCR_VREFEN;
 8000cfc:	4b08      	ldr	r3, [pc, #32]	@ (8000d20 <HAL_ADC_ConfigChannel+0x100>)
 8000cfe:	681a      	ldr	r2, [r3, #0]
 8000d00:	4b07      	ldr	r3, [pc, #28]	@ (8000d20 <HAL_ADC_ConfigChannel+0x100>)
 8000d02:	4909      	ldr	r1, [pc, #36]	@ (8000d28 <HAL_ADC_ConfigChannel+0x108>)
 8000d04:	400a      	ands	r2, r1
 8000d06:	601a      	str	r2, [r3, #0]
    }
#endif
  }

  /* Process unlocked */
  __HAL_UNLOCK(hadc);
 8000d08:	687b      	ldr	r3, [r7, #4]
 8000d0a:	2250      	movs	r2, #80	@ 0x50
 8000d0c:	2100      	movs	r1, #0
 8000d0e:	5499      	strb	r1, [r3, r2]

  /* Return function status */
  return HAL_OK;
 8000d10:	2300      	movs	r3, #0
}
 8000d12:	0018      	movs	r0, r3
 8000d14:	46bd      	mov	sp, r7
 8000d16:	b002      	add	sp, #8
 8000d18:	bd80      	pop	{r7, pc}
 8000d1a:	46c0      	nop			@ (mov r8, r8)
 8000d1c:	00001001 	.word	0x00001001
 8000d20:	40012708 	.word	0x40012708
 8000d24:	ff7fffff 	.word	0xff7fffff
 8000d28:	ffbfffff 	.word	0xffbfffff

08000d2c <ADC_Enable>:
  *         "if (hadc->Init.LowPowerAutoPowerOff != ENABLE)".
  * @param  hadc ADC handle
  * @retval HAL status.
  */
static HAL_StatusTypeDef ADC_Enable(ADC_HandleTypeDef *hadc)
{
 8000d2c:	b580      	push	{r7, lr}
 8000d2e:	b084      	sub	sp, #16
 8000d30:	af00      	add	r7, sp, #0
 8000d32:	6078      	str	r0, [r7, #4]
  uint32_t tickstart = 0U;
 8000d34:	2300      	movs	r3, #0
 8000d36:	60fb      	str	r3, [r7, #12]

  /* ADC enable and wait for ADC ready (in case of ADC is disabled or         */
  /* enabling phase not yet completed: flag ADC ready not yet set).           */
  /* Timeout implemented to not be stuck if ADC cannot be enabled (possible   */
  /* causes: ADC clock not running, ...).                                     */
  if (ADC_IS_ENABLE(hadc) == RESET)
 8000d38:	687b      	ldr	r3, [r7, #4]
 8000d3a:	681b      	ldr	r3, [r3, #0]
 8000d3c:	689b      	ldr	r3, [r3, #8]
 8000d3e:	2203      	movs	r2, #3
 8000d40:	4013      	ands	r3, r2
 8000d42:	2b01      	cmp	r3, #1
 8000d44:	d108      	bne.n	8000d58 <ADC_Enable+0x2c>
 8000d46:	687b      	ldr	r3, [r7, #4]
 8000d48:	681b      	ldr	r3, [r3, #0]
 8000d4a:	681b      	ldr	r3, [r3, #0]
 8000d4c:	2201      	movs	r2, #1
 8000d4e:	4013      	ands	r3, r2
 8000d50:	2b01      	cmp	r3, #1
 8000d52:	d101      	bne.n	8000d58 <ADC_Enable+0x2c>
 8000d54:	2301      	movs	r3, #1
 8000d56:	e000      	b.n	8000d5a <ADC_Enable+0x2e>
 8000d58:	2300      	movs	r3, #0
 8000d5a:	2b00      	cmp	r3, #0
 8000d5c:	d146      	bne.n	8000dec <ADC_Enable+0xc0>
  {
    /* Check if conditions to enable the ADC are fulfilled */
    if (ADC_ENABLING_CONDITIONS(hadc) == RESET)
 8000d5e:	687b      	ldr	r3, [r7, #4]
 8000d60:	681b      	ldr	r3, [r3, #0]
 8000d62:	689b      	ldr	r3, [r3, #8]
 8000d64:	4a24      	ldr	r2, [pc, #144]	@ (8000df8 <ADC_Enable+0xcc>)
 8000d66:	4013      	ands	r3, r2
 8000d68:	d00d      	beq.n	8000d86 <ADC_Enable+0x5a>
    {
      /* Update ADC state machine to error */
      SET_BIT(hadc->State, HAL_ADC_STATE_ERROR_INTERNAL);
 8000d6a:	687b      	ldr	r3, [r7, #4]
 8000d6c:	6d5b      	ldr	r3, [r3, #84]	@ 0x54
 8000d6e:	2210      	movs	r2, #16
 8000d70:	431a      	orrs	r2, r3
 8000d72:	687b      	ldr	r3, [r7, #4]
 8000d74:	655a      	str	r2, [r3, #84]	@ 0x54

      /* Set ADC error code to ADC peripheral internal error */
      SET_BIT(hadc->ErrorCode, HAL_ADC_ERROR_INTERNAL);
 8000d76:	687b      	ldr	r3, [r7, #4]
 8000d78:	6d9b      	ldr	r3, [r3, #88]	@ 0x58
 8000d7a:	2201      	movs	r2, #1
 8000d7c:	431a      	orrs	r2, r3
 8000d7e:	687b      	ldr	r3, [r7, #4]
 8000d80:	659a      	str	r2, [r3, #88]	@ 0x58

      return HAL_ERROR;
 8000d82:	2301      	movs	r3, #1
 8000d84:	e033      	b.n	8000dee <ADC_Enable+0xc2>
    }

    /* Enable the ADC peripheral */
    __HAL_ADC_ENABLE(hadc);
 8000d86:	687b      	ldr	r3, [r7, #4]
 8000d88:	681b      	ldr	r3, [r3, #0]
 8000d8a:	689a      	ldr	r2, [r3, #8]
 8000d8c:	687b      	ldr	r3, [r7, #4]
 8000d8e:	681b      	ldr	r3, [r3, #0]
 8000d90:	2101      	movs	r1, #1
 8000d92:	430a      	orrs	r2, r1
 8000d94:	609a      	str	r2, [r3, #8]

    /* Delay for ADC stabilization time. */
    ADC_DelayMicroSecond(ADC_STAB_DELAY_US);
 8000d96:	2001      	movs	r0, #1
 8000d98:	f000 f8e4 	bl	8000f64 <ADC_DelayMicroSecond>

    /* Get tick count */
    tickstart = HAL_GetTick();
 8000d9c:	f7ff fc86 	bl	80006ac <HAL_GetTick>
 8000da0:	0003      	movs	r3, r0
 8000da2:	60fb      	str	r3, [r7, #12]

    /* Wait for ADC effectively enabled */
    while (__HAL_ADC_GET_FLAG(hadc, ADC_FLAG_RDY) == RESET)
 8000da4:	e01b      	b.n	8000dde <ADC_Enable+0xb2>
    {
      if ((HAL_GetTick() - tickstart) > ADC_ENABLE_TIMEOUT)
 8000da6:	f7ff fc81 	bl	80006ac <HAL_GetTick>
 8000daa:	0002      	movs	r2, r0
 8000dac:	68fb      	ldr	r3, [r7, #12]
 8000dae:	1ad3      	subs	r3, r2, r3
 8000db0:	2b0a      	cmp	r3, #10
 8000db2:	d914      	bls.n	8000dde <ADC_Enable+0xb2>
      {
        /* New check to avoid false timeout detection in case of preemption */
        if (__HAL_ADC_GET_FLAG(hadc, ADC_FLAG_RDY) == RESET)
 8000db4:	687b      	ldr	r3, [r7, #4]
 8000db6:	681b      	ldr	r3, [r3, #0]
 8000db8:	681b      	ldr	r3, [r3, #0]
 8000dba:	2201      	movs	r2, #1
 8000dbc:	4013      	ands	r3, r2
 8000dbe:	2b01      	cmp	r3, #1
 8000dc0:	d00d      	beq.n	8000dde <ADC_Enable+0xb2>
        {
          /* Update ADC state machine to error */
          SET_BIT(hadc->State, HAL_ADC_STATE_ERROR_INTERNAL);
 8000dc2:	687b      	ldr	r3, [r7, #4]
 8000dc4:	6d5b      	ldr	r3, [r3, #84]	@ 0x54
 8000dc6:	2210      	movs	r2, #16
 8000dc8:	431a      	orrs	r2, r3
 8000dca:	687b      	ldr	r3, [r7, #4]
 8000dcc:	655a      	str	r2, [r3, #84]	@ 0x54

          /* Set ADC error code to ADC peripheral internal error */
          SET_BIT(hadc->ErrorCode, HAL_ADC_ERROR_INTERNAL);
 8000dce:	687b      	ldr	r3, [r7, #4]
 8000dd0:	6d9b      	ldr	r3, [r3, #88]	@ 0x58
 8000dd2:	2201      	movs	r2, #1
 8000dd4:	431a      	orrs	r2, r3
 8000dd6:	687b      	ldr	r3, [r7, #4]
 8000dd8:	659a      	str	r2, [r3, #88]	@ 0x58

          return HAL_ERROR;
 8000dda:	2301      	movs	r3, #1
 8000ddc:	e007      	b.n	8000dee <ADC_Enable+0xc2>
    while (__HAL_ADC_GET_FLAG(hadc, ADC_FLAG_RDY) == RESET)
 8000dde:	687b      	ldr	r3, [r7, #4]
 8000de0:	681b      	ldr	r3, [r3, #0]
 8000de2:	681b      	ldr	r3, [r3, #0]
 8000de4:	2201      	movs	r2, #1
 8000de6:	4013      	ands	r3, r2
 8000de8:	2b01      	cmp	r3, #1
 8000dea:	d1dc      	bne.n	8000da6 <ADC_Enable+0x7a>
      }
    }
  }

  /* Return HAL status */
  return HAL_OK;
 8000dec:	2300      	movs	r3, #0
}
 8000dee:	0018      	movs	r0, r3
 8000df0:	46bd      	mov	sp, r7
 8000df2:	b004      	add	sp, #16
 8000df4:	bd80      	pop	{r7, pc}
 8000df6:	46c0      	nop			@ (mov r8, r8)
 8000df8:	80000017 	.word	0x80000017

08000dfc <ADC_Disable>:
  *         stopped.
  * @param  hadc ADC handle
  * @retval HAL status.
  */
static HAL_StatusTypeDef ADC_Disable(ADC_HandleTypeDef *hadc)
{
 8000dfc:	b580      	push	{r7, lr}
 8000dfe:	b084      	sub	sp, #16
 8000e00:	af00      	add	r7, sp, #0
 8000e02:	6078      	str	r0, [r7, #4]
  uint32_t tickstart = 0U;
 8000e04:	2300      	movs	r3, #0
 8000e06:	60fb      	str	r3, [r7, #12]

  /* Verification if ADC is not already disabled:                             */
  /* Note: forbidden to disable ADC (set bit ADC_CR_ADDIS) if ADC is already  */
  /*       disabled.                                                          */
  if (ADC_IS_ENABLE(hadc) != RESET)
 8000e08:	687b      	ldr	r3, [r7, #4]
 8000e0a:	681b      	ldr	r3, [r3, #0]
 8000e0c:	689b      	ldr	r3, [r3, #8]
 8000e0e:	2203      	movs	r2, #3
 8000e10:	4013      	ands	r3, r2
 8000e12:	2b01      	cmp	r3, #1
 8000e14:	d108      	bne.n	8000e28 <ADC_Disable+0x2c>
 8000e16:	687b      	ldr	r3, [r7, #4]
 8000e18:	681b      	ldr	r3, [r3, #0]
 8000e1a:	681b      	ldr	r3, [r3, #0]
 8000e1c:	2201      	movs	r2, #1
 8000e1e:	4013      	ands	r3, r2
 8000e20:	2b01      	cmp	r3, #1
 8000e22:	d101      	bne.n	8000e28 <ADC_Disable+0x2c>
 8000e24:	2301      	movs	r3, #1
 8000e26:	e000      	b.n	8000e2a <ADC_Disable+0x2e>
 8000e28:	2300      	movs	r3, #0
 8000e2a:	2b00      	cmp	r3, #0
 8000e2c:	d048      	beq.n	8000ec0 <ADC_Disable+0xc4>
  {
    /* Check if conditions to disable the ADC are fulfilled */
    if (ADC_DISABLING_CONDITIONS(hadc) != RESET)
 8000e2e:	687b      	ldr	r3, [r7, #4]
 8000e30:	681b      	ldr	r3, [r3, #0]
 8000e32:	689b      	ldr	r3, [r3, #8]
 8000e34:	2205      	movs	r2, #5
 8000e36:	4013      	ands	r3, r2
 8000e38:	2b01      	cmp	r3, #1
 8000e3a:	d110      	bne.n	8000e5e <ADC_Disable+0x62>
    {
      /* Disable the ADC peripheral */
      __HAL_ADC_DISABLE(hadc);
 8000e3c:	687b      	ldr	r3, [r7, #4]
 8000e3e:	681b      	ldr	r3, [r3, #0]
 8000e40:	689a      	ldr	r2, [r3, #8]
 8000e42:	687b      	ldr	r3, [r7, #4]
 8000e44:	681b      	ldr	r3, [r3, #0]
 8000e46:	2102      	movs	r1, #2
 8000e48:	430a      	orrs	r2, r1
 8000e4a:	609a      	str	r2, [r3, #8]
 8000e4c:	687b      	ldr	r3, [r7, #4]
 8000e4e:	681b      	ldr	r3, [r3, #0]
 8000e50:	2203      	movs	r2, #3
 8000e52:	601a      	str	r2, [r3, #0]
      return HAL_ERROR;
    }

    /* Wait for ADC effectively disabled */
    /* Get tick count */
    tickstart = HAL_GetTick();
 8000e54:	f7ff fc2a 	bl	80006ac <HAL_GetTick>
 8000e58:	0003      	movs	r3, r0
 8000e5a:	60fb      	str	r3, [r7, #12]

    while (HAL_IS_BIT_SET(hadc->Instance->CR, ADC_CR_ADEN))
 8000e5c:	e029      	b.n	8000eb2 <ADC_Disable+0xb6>
      SET_BIT(hadc->State, HAL_ADC_STATE_ERROR_INTERNAL);
 8000e5e:	687b      	ldr	r3, [r7, #4]
 8000e60:	6d5b      	ldr	r3, [r3, #84]	@ 0x54
 8000e62:	2210      	movs	r2, #16
 8000e64:	431a      	orrs	r2, r3
 8000e66:	687b      	ldr	r3, [r7, #4]
 8000e68:	655a      	str	r2, [r3, #84]	@ 0x54
      SET_BIT(hadc->ErrorCode, HAL_ADC_ERROR_INTERNAL);
 8000e6a:	687b      	ldr	r3, [r7, #4]
 8000e6c:	6d9b      	ldr	r3, [r3, #88]	@ 0x58
 8000e6e:	2201      	movs	r2, #1
 8000e70:	431a      	orrs	r2, r3
 8000e72:	687b      	ldr	r3, [r7, #4]
 8000e74:	659a      	str	r2, [r3, #88]	@ 0x58
      return HAL_ERROR;
 8000e76:	2301      	movs	r3, #1
 8000e78:	e023      	b.n	8000ec2 <ADC_Disable+0xc6>
    {
      if ((HAL_GetTick() - tickstart) > ADC_DISABLE_TIMEOUT)
 8000e7a:	f7ff fc17 	bl	80006ac <HAL_GetTick>
 8000e7e:	0002      	movs	r2, r0
 8000e80:	68fb      	ldr	r3, [r7, #12]
 8000e82:	1ad3      	subs	r3, r2, r3
 8000e84:	2b0a      	cmp	r3, #10
 8000e86:	d914      	bls.n	8000eb2 <ADC_Disable+0xb6>
      {
        /* New check to avoid false timeout detection in case of preemption */
        if (HAL_IS_BIT_SET(hadc->Instance->CR, ADC_CR_ADEN))
 8000e88:	687b      	ldr	r3, [r7, #4]
 8000e8a:	681b      	ldr	r3, [r3, #0]
 8000e8c:	689b      	ldr	r3, [r3, #8]
 8000e8e:	2201      	movs	r2, #1
 8000e90:	4013      	ands	r3, r2
 8000e92:	2b01      	cmp	r3, #1
 8000e94:	d10d      	bne.n	8000eb2 <ADC_Disable+0xb6>
        {
          /* Update ADC state machine to error */
          SET_BIT(hadc->State, HAL_ADC_STATE_ERROR_INTERNAL);
 8000e96:	687b      	ldr	r3, [r7, #4]
 8000e98:	6d5b      	ldr	r3, [r3, #84]	@ 0x54
 8000e9a:	2210      	movs	r2, #16
 8000e9c:	431a      	orrs	r2, r3
 8000e9e:	687b      	ldr	r3, [r7, #4]
 8000ea0:	655a      	str	r2, [r3, #84]	@ 0x54

          /* Set ADC error code to ADC peripheral internal error */
          SET_BIT(hadc->ErrorCode, HAL_ADC_ERROR_INTERNAL);
 8000ea2:	687b      	ldr	r3, [r7, #4]
 8000ea4:	6d9b      	ldr	r3, [r3, #88]	@ 0x58
 8000ea6:	2201      	movs	r2, #1
 8000ea8:	431a      	orrs	r2, r3
 8000eaa:	687b      	ldr	r3, [r7, #4]
 8000eac:	659a      	str	r2, [r3, #88]	@ 0x58

          return HAL_ERROR;
 8000eae:	2301      	movs	r3, #1
 8000eb0:	e007      	b.n	8000ec2 <ADC_Disable+0xc6>
    while (HAL_IS_BIT_SET(hadc->Instance->CR, ADC_CR_ADEN))
 8000eb2:	687b      	ldr	r3, [r7, #4]
 8000eb4:	681b      	ldr	r3, [r3, #0]
 8000eb6:	689b      	ldr	r3, [r3, #8]
 8000eb8:	2201      	movs	r2, #1
 8000eba:	4013      	ands	r3, r2
 8000ebc:	2b01      	cmp	r3, #1
 8000ebe:	d0dc      	beq.n	8000e7a <ADC_Disable+0x7e>
      }
    }
  }

  /* Return HAL status */
  return HAL_OK;
 8000ec0:	2300      	movs	r3, #0
}
 8000ec2:	0018      	movs	r0, r3
 8000ec4:	46bd      	mov	sp, r7
 8000ec6:	b004      	add	sp, #16
 8000ec8:	bd80      	pop	{r7, pc}

08000eca <ADC_ConversionStop>:
  *         stopped to disable the ADC.
  * @param  hadc ADC handle
  * @retval HAL status.
  */
static HAL_StatusTypeDef ADC_ConversionStop(ADC_HandleTypeDef *hadc)
{
 8000eca:	b580      	push	{r7, lr}
 8000ecc:	b084      	sub	sp, #16
 8000ece:	af00      	add	r7, sp, #0
 8000ed0:	6078      	str	r0, [r7, #4]
  uint32_t tickstart = 0U;
 8000ed2:	2300      	movs	r3, #0
 8000ed4:	60fb      	str	r3, [r7, #12]
  /* Check the parameters */
  assert_param(IS_ADC_ALL_INSTANCE(hadc->Instance));

  /* Verification if ADC is not already stopped on regular group to bypass    */
  /* this function if not needed.                                             */
  if (ADC_IS_CONVERSION_ONGOING_REGULAR(hadc))
 8000ed6:	687b      	ldr	r3, [r7, #4]
 8000ed8:	681b      	ldr	r3, [r3, #0]
 8000eda:	689b      	ldr	r3, [r3, #8]
 8000edc:	2204      	movs	r2, #4
 8000ede:	4013      	ands	r3, r2
 8000ee0:	d03a      	beq.n	8000f58 <ADC_ConversionStop+0x8e>
  {

    /* Stop potential conversion on going on regular group */
    /* Software is allowed to set ADSTP only when ADSTART=1 and ADDIS=0 */
    if (HAL_IS_BIT_SET(hadc->Instance->CR, ADC_CR_ADSTART) &&
 8000ee2:	687b      	ldr	r3, [r7, #4]
 8000ee4:	681b      	ldr	r3, [r3, #0]
 8000ee6:	689b      	ldr	r3, [r3, #8]
 8000ee8:	2204      	movs	r2, #4
 8000eea:	4013      	ands	r3, r2
 8000eec:	2b04      	cmp	r3, #4
 8000eee:	d10d      	bne.n	8000f0c <ADC_ConversionStop+0x42>
        HAL_IS_BIT_CLR(hadc->Instance->CR, ADC_CR_ADDIS))
 8000ef0:	687b      	ldr	r3, [r7, #4]
 8000ef2:	681b      	ldr	r3, [r3, #0]
 8000ef4:	689b      	ldr	r3, [r3, #8]
 8000ef6:	2202      	movs	r2, #2
 8000ef8:	4013      	ands	r3, r2
    if (HAL_IS_BIT_SET(hadc->Instance->CR, ADC_CR_ADSTART) &&
 8000efa:	d107      	bne.n	8000f0c <ADC_ConversionStop+0x42>
    {
      /* Stop conversions on regular group */
      hadc->Instance->CR |= ADC_CR_ADSTP;
 8000efc:	687b      	ldr	r3, [r7, #4]
 8000efe:	681b      	ldr	r3, [r3, #0]
 8000f00:	689a      	ldr	r2, [r3, #8]
 8000f02:	687b      	ldr	r3, [r7, #4]
 8000f04:	681b      	ldr	r3, [r3, #0]
 8000f06:	2110      	movs	r1, #16
 8000f08:	430a      	orrs	r2, r1
 8000f0a:	609a      	str	r2, [r3, #8]
    }

    /* Wait for conversion effectively stopped */
    /* Get tick count */
    tickstart = HAL_GetTick();
 8000f0c:	f7ff fbce 	bl	80006ac <HAL_GetTick>
 8000f10:	0003      	movs	r3, r0
 8000f12:	60fb      	str	r3, [r7, #12]

    while ((hadc->Instance->CR & ADC_CR_ADSTART) != RESET)
 8000f14:	e01a      	b.n	8000f4c <ADC_ConversionStop+0x82>
    {
      if ((HAL_GetTick() - tickstart) > ADC_STOP_CONVERSION_TIMEOUT)
 8000f16:	f7ff fbc9 	bl	80006ac <HAL_GetTick>
 8000f1a:	0002      	movs	r2, r0
 8000f1c:	68fb      	ldr	r3, [r7, #12]
 8000f1e:	1ad3      	subs	r3, r2, r3
 8000f20:	2b0a      	cmp	r3, #10
 8000f22:	d913      	bls.n	8000f4c <ADC_ConversionStop+0x82>
      {
        /* New check to avoid false timeout detection in case of preemption */
        if ((hadc->Instance->CR & ADC_CR_ADSTART) != RESET)
 8000f24:	687b      	ldr	r3, [r7, #4]
 8000f26:	681b      	ldr	r3, [r3, #0]
 8000f28:	689b      	ldr	r3, [r3, #8]
 8000f2a:	2204      	movs	r2, #4
 8000f2c:	4013      	ands	r3, r2
 8000f2e:	d00d      	beq.n	8000f4c <ADC_ConversionStop+0x82>
        {
          /* Update ADC state machine to error */
          SET_BIT(hadc->State, HAL_ADC_STATE_ERROR_INTERNAL);
 8000f30:	687b      	ldr	r3, [r7, #4]
 8000f32:	6d5b      	ldr	r3, [r3, #84]	@ 0x54
 8000f34:	2210      	movs	r2, #16
 8000f36:	431a      	orrs	r2, r3
 8000f38:	687b      	ldr	r3, [r7, #4]
 8000f3a:	655a      	str	r2, [r3, #84]	@ 0x54

          /* Set ADC error code to ADC peripheral internal error */
          SET_BIT(hadc->ErrorCode, HAL_ADC_ERROR_INTERNAL);
 8000f3c:	687b      	ldr	r3, [r7, #4]
 8000f3e:	6d9b      	ldr	r3, [r3, #88]	@ 0x58
 8000f40:	2201      	movs	r2, #1
 8000f42:	431a      	orrs	r2, r3
 8000f44:	687b      	ldr	r3, [r7, #4]
 8000f46:	659a      	str	r2, [r3, #88]	@ 0x58

          return HAL_ERROR;
 8000f48:	2301      	movs	r3, #1
 8000f4a:	e006      	b.n	8000f5a <ADC_ConversionStop+0x90>
    while ((hadc->Instance->CR & ADC_CR_ADSTART) != RESET)
 8000f4c:	687b      	ldr	r3, [r7, #4]
 8000f4e:	681b      	ldr	r3, [r3, #0]
 8000f50:	689b      	ldr	r3, [r3, #8]
 8000f52:	2204      	movs	r2, #4
 8000f54:	4013      	ands	r3, r2
 8000f56:	d1de      	bne.n	8000f16 <ADC_ConversionStop+0x4c>
      }
    }
  }

  /* Return HAL status */
  return HAL_OK;
 8000f58:	2300      	movs	r3, #0
}
 8000f5a:	0018      	movs	r0, r3
 8000f5c:	46bd      	mov	sp, r7
 8000f5e:	b004      	add	sp, #16
 8000f60:	bd80      	pop	{r7, pc}
	...

08000f64 <ADC_DelayMicroSecond>:
  * @brief  Delay micro seconds
  * @param  microSecond  delay
  * @retval None
  */
static void ADC_DelayMicroSecond(uint32_t microSecond)
{
 8000f64:	b580      	push	{r7, lr}
 8000f66:	b084      	sub	sp, #16
 8000f68:	af00      	add	r7, sp, #0
 8000f6a:	6078      	str	r0, [r7, #4]
  /* Compute number of CPU cycles to wait for */
  __IO uint32_t waitLoopIndex = (microSecond * (SystemCoreClock / 1000000U));
 8000f6c:	4b0b      	ldr	r3, [pc, #44]	@ (8000f9c <ADC_DelayMicroSecond+0x38>)
 8000f6e:	681b      	ldr	r3, [r3, #0]
 8000f70:	490b      	ldr	r1, [pc, #44]	@ (8000fa0 <ADC_DelayMicroSecond+0x3c>)
 8000f72:	0018      	movs	r0, r3
 8000f74:	f7ff f8c8 	bl	8000108 <__udivsi3>
 8000f78:	0003      	movs	r3, r0
 8000f7a:	001a      	movs	r2, r3
 8000f7c:	687b      	ldr	r3, [r7, #4]
 8000f7e:	4353      	muls	r3, r2
 8000f80:	60fb      	str	r3, [r7, #12]

  while (waitLoopIndex != 0U)
 8000f82:	e002      	b.n	8000f8a <ADC_DelayMicroSecond+0x26>
  {
    waitLoopIndex--;
 8000f84:	68fb      	ldr	r3, [r7, #12]
 8000f86:	3b01      	subs	r3, #1
 8000f88:	60fb      	str	r3, [r7, #12]
  while (waitLoopIndex != 0U)
 8000f8a:	68fb      	ldr	r3, [r7, #12]
 8000f8c:	2b00      	cmp	r3, #0
 8000f8e:	d1f9      	bne.n	8000f84 <ADC_DelayMicroSecond+0x20>
  }
}
 8000f90:	46c0      	nop			@ (mov r8, r8)
 8000f92:	46c0      	nop			@ (mov r8, r8)
 8000f94:	46bd      	mov	sp, r7
 8000f96:	b004      	add	sp, #16
 8000f98:	bd80      	pop	{r7, pc}
 8000f9a:	46c0      	nop			@ (mov r8, r8)
 8000f9c:	20000000 	.word	0x20000000
 8000fa0:	000f4240 	.word	0x000f4240

08000fa4 <HAL_ADCEx_Calibration_Start>:
  *          This parameter can be only of the following values:
  *            @arg ADC_SINGLE_ENDED: Channel in mode input single ended
  * @retval HAL status
  */
HAL_StatusTypeDef HAL_ADCEx_Calibration_Start(ADC_HandleTypeDef *hadc, uint32_t SingleDiff)
{
 8000fa4:	b580      	push	{r7, lr}
 8000fa6:	b086      	sub	sp, #24
 8000fa8:	af00      	add	r7, sp, #0
 8000faa:	6078      	str	r0, [r7, #4]
 8000fac:	6039      	str	r1, [r7, #0]
  HAL_StatusTypeDef tmp_hal_status = HAL_OK;
 8000fae:	2317      	movs	r3, #23
 8000fb0:	18fb      	adds	r3, r7, r3
 8000fb2:	2200      	movs	r2, #0
 8000fb4:	701a      	strb	r2, [r3, #0]
  uint32_t tickstart = 0U;
 8000fb6:	2300      	movs	r3, #0
 8000fb8:	613b      	str	r3, [r7, #16]
  uint32_t backup_setting_adc_dma_transfer = 0U; /* Note: Variable not declared as volatile because register read is already declared as volatile */
 8000fba:	2300      	movs	r3, #0
 8000fbc:	60fb      	str	r3, [r7, #12]

  /* Prevent unused argument(s) compilation warning */
  UNUSED(SingleDiff);

  /* Process locked */
  __HAL_LOCK(hadc);
 8000fbe:	687b      	ldr	r3, [r7, #4]
 8000fc0:	2250      	movs	r2, #80	@ 0x50
 8000fc2:	5c9b      	ldrb	r3, [r3, r2]
 8000fc4:	2b01      	cmp	r3, #1
 8000fc6:	d101      	bne.n	8000fcc <HAL_ADCEx_Calibration_Start+0x28>
 8000fc8:	2302      	movs	r3, #2
 8000fca:	e083      	b.n	80010d4 <HAL_ADCEx_Calibration_Start+0x130>
 8000fcc:	687b      	ldr	r3, [r7, #4]
 8000fce:	2250      	movs	r2, #80	@ 0x50
 8000fd0:	2101      	movs	r1, #1
 8000fd2:	5499      	strb	r1, [r3, r2]

  /* Calibration prerequisite: ADC must be disabled. */
  if (ADC_IS_ENABLE(hadc) == RESET)
 8000fd4:	687b      	ldr	r3, [r7, #4]
 8000fd6:	681b      	ldr	r3, [r3, #0]
 8000fd8:	689b      	ldr	r3, [r3, #8]
 8000fda:	2203      	movs	r2, #3
 8000fdc:	4013      	ands	r3, r2
 8000fde:	2b01      	cmp	r3, #1
 8000fe0:	d108      	bne.n	8000ff4 <HAL_ADCEx_Calibration_Start+0x50>
 8000fe2:	687b      	ldr	r3, [r7, #4]
 8000fe4:	681b      	ldr	r3, [r3, #0]
 8000fe6:	681b      	ldr	r3, [r3, #0]
 8000fe8:	2201      	movs	r2, #1
 8000fea:	4013      	ands	r3, r2
 8000fec:	2b01      	cmp	r3, #1
 8000fee:	d101      	bne.n	8000ff4 <HAL_ADCEx_Calibration_Start+0x50>
 8000ff0:	2301      	movs	r3, #1
 8000ff2:	e000      	b.n	8000ff6 <HAL_ADCEx_Calibration_Start+0x52>
 8000ff4:	2300      	movs	r3, #0
 8000ff6:	2b00      	cmp	r3, #0
 8000ff8:	d15b      	bne.n	80010b2 <HAL_ADCEx_Calibration_Start+0x10e>
  {
    /* Set ADC state */
    ADC_STATE_CLR_SET(hadc->State,
 8000ffa:	687b      	ldr	r3, [r7, #4]
 8000ffc:	6d5b      	ldr	r3, [r3, #84]	@ 0x54
 8000ffe:	4a37      	ldr	r2, [pc, #220]	@ (80010dc <HAL_ADCEx_Calibration_Start+0x138>)
 8001000:	4013      	ands	r3, r2
 8001002:	2202      	movs	r2, #2
 8001004:	431a      	orrs	r2, r3
 8001006:	687b      	ldr	r3, [r7, #4]
 8001008:	655a      	str	r2, [r3, #84]	@ 0x54
    /* Note: Specificity of this STM32 series: Calibration factor is           */
    /*       available in data register and also transferred by DMA.           */
    /*       To not insert ADC calibration factor among ADC conversion data   */
    /*       in array variable, DMA transfer must be disabled during          */
    /*       calibration.                                                     */
    backup_setting_adc_dma_transfer = READ_BIT(hadc->Instance->CFGR1, ADC_CFGR1_DMAEN | ADC_CFGR1_DMACFG);
 800100a:	687b      	ldr	r3, [r7, #4]
 800100c:	681b      	ldr	r3, [r3, #0]
 800100e:	68db      	ldr	r3, [r3, #12]
 8001010:	2203      	movs	r2, #3
 8001012:	4013      	ands	r3, r2
 8001014:	60fb      	str	r3, [r7, #12]
    CLEAR_BIT(hadc->Instance->CFGR1, ADC_CFGR1_DMAEN | ADC_CFGR1_DMACFG);
 8001016:	687b      	ldr	r3, [r7, #4]
 8001018:	681b      	ldr	r3, [r3, #0]
 800101a:	68da      	ldr	r2, [r3, #12]
 800101c:	687b      	ldr	r3, [r7, #4]
 800101e:	681b      	ldr	r3, [r3, #0]
 8001020:	2103      	movs	r1, #3
 8001022:	438a      	bics	r2, r1
 8001024:	60da      	str	r2, [r3, #12]

    /* Start ADC calibration */
    hadc->Instance->CR |= ADC_CR_ADCAL;
 8001026:	687b      	ldr	r3, [r7, #4]
 8001028:	681b      	ldr	r3, [r3, #0]
 800102a:	689a      	ldr	r2, [r3, #8]
 800102c:	687b      	ldr	r3, [r7, #4]
 800102e:	681b      	ldr	r3, [r3, #0]
 8001030:	2180      	movs	r1, #128	@ 0x80
 8001032:	0609      	lsls	r1, r1, #24
 8001034:	430a      	orrs	r2, r1
 8001036:	609a      	str	r2, [r3, #8]

    tickstart = HAL_GetTick();
 8001038:	f7ff fb38 	bl	80006ac <HAL_GetTick>
 800103c:	0003      	movs	r3, r0
 800103e:	613b      	str	r3, [r7, #16]

    /* Wait for calibration completion */
    while (HAL_IS_BIT_SET(hadc->Instance->CR, ADC_CR_ADCAL))
 8001040:	e01d      	b.n	800107e <HAL_ADCEx_Calibration_Start+0xda>
    {
      if ((HAL_GetTick() - tickstart) > ADC_CALIBRATION_TIMEOUT)
 8001042:	f7ff fb33 	bl	80006ac <HAL_GetTick>
 8001046:	0002      	movs	r2, r0
 8001048:	693b      	ldr	r3, [r7, #16]
 800104a:	1ad3      	subs	r3, r2, r3
 800104c:	2b0a      	cmp	r3, #10
 800104e:	d916      	bls.n	800107e <HAL_ADCEx_Calibration_Start+0xda>
      {
        /* New check to avoid false timeout detection in case of preemption */
        if (HAL_IS_BIT_SET(hadc->Instance->CR, ADC_CR_ADCAL))
 8001050:	687b      	ldr	r3, [r7, #4]
 8001052:	681b      	ldr	r3, [r3, #0]
 8001054:	689b      	ldr	r3, [r3, #8]
 8001056:	0fdb      	lsrs	r3, r3, #31
 8001058:	07da      	lsls	r2, r3, #31
 800105a:	2380      	movs	r3, #128	@ 0x80
 800105c:	061b      	lsls	r3, r3, #24
 800105e:	429a      	cmp	r2, r3
 8001060:	d10d      	bne.n	800107e <HAL_ADCEx_Calibration_Start+0xda>
        {
          /* Update ADC state machine to error */
          ADC_STATE_CLR_SET(hadc->State,
 8001062:	687b      	ldr	r3, [r7, #4]
 8001064:	6d5b      	ldr	r3, [r3, #84]	@ 0x54
 8001066:	2212      	movs	r2, #18
 8001068:	4393      	bics	r3, r2
 800106a:	2210      	movs	r2, #16
 800106c:	431a      	orrs	r2, r3
 800106e:	687b      	ldr	r3, [r7, #4]
 8001070:	655a      	str	r2, [r3, #84]	@ 0x54
                            HAL_ADC_STATE_BUSY_INTERNAL,
                            HAL_ADC_STATE_ERROR_INTERNAL);

          /* Process unlocked */
          __HAL_UNLOCK(hadc);
 8001072:	687b      	ldr	r3, [r7, #4]
 8001074:	2250      	movs	r2, #80	@ 0x50
 8001076:	2100      	movs	r1, #0
 8001078:	5499      	strb	r1, [r3, r2]

          return HAL_ERROR;
 800107a:	2301      	movs	r3, #1
 800107c:	e02a      	b.n	80010d4 <HAL_ADCEx_Calibration_Start+0x130>
    while (HAL_IS_BIT_SET(hadc->Instance->CR, ADC_CR_ADCAL))
 800107e:	687b      	ldr	r3, [r7, #4]
 8001080:	681b      	ldr	r3, [r3, #0]
 8001082:	689b      	ldr	r3, [r3, #8]
 8001084:	0fdb      	lsrs	r3, r3, #31
 8001086:	07da      	lsls	r2, r3, #31
 8001088:	2380      	movs	r3, #128	@ 0x80
 800108a:	061b      	lsls	r3, r3, #24
 800108c:	429a      	cmp	r2, r3
 800108e:	d0d8      	beq.n	8001042 <HAL_ADCEx_Calibration_Start+0x9e>
        }
      }
    }

    /* Restore ADC DMA transfer request after calibration */
    SET_BIT(hadc->Instance->CFGR1, backup_setting_adc_dma_transfer);
 8001090:	687b      	ldr	r3, [r7, #4]
 8001092:	681b      	ldr	r3, [r3, #0]
 8001094:	68d9      	ldr	r1, [r3, #12]
 8001096:	687b      	ldr	r3, [r7, #4]
 8001098:	681b      	ldr	r3, [r3, #0]
 800109a:	68fa      	ldr	r2, [r7, #12]
 800109c:	430a      	orrs	r2, r1
 800109e:	60da      	str	r2, [r3, #12]

    /* Set ADC state */
    ADC_STATE_CLR_SET(hadc->State,
 80010a0:	687b      	ldr	r3, [r7, #4]
 80010a2:	6d5b      	ldr	r3, [r3, #84]	@ 0x54
 80010a4:	2203      	movs	r2, #3
 80010a6:	4393      	bics	r3, r2
 80010a8:	2201      	movs	r2, #1
 80010aa:	431a      	orrs	r2, r3
 80010ac:	687b      	ldr	r3, [r7, #4]
 80010ae:	655a      	str	r2, [r3, #84]	@ 0x54
 80010b0:	e009      	b.n	80010c6 <HAL_ADCEx_Calibration_Start+0x122>
                      HAL_ADC_STATE_READY);
  }
  else
  {
    /* Update ADC state machine to error */
    SET_BIT(hadc->State, HAL_ADC_STATE_ERROR_CONFIG);
 80010b2:	687b      	ldr	r3, [r7, #4]
 80010b4:	6d5b      	ldr	r3, [r3, #84]	@ 0x54
 80010b6:	2220      	movs	r2, #32
 80010b8:	431a      	orrs	r2, r3
 80010ba:	687b      	ldr	r3, [r7, #4]
 80010bc:	655a      	str	r2, [r3, #84]	@ 0x54

    tmp_hal_status = HAL_ERROR;
 80010be:	2317      	movs	r3, #23
 80010c0:	18fb      	adds	r3, r7, r3
 80010c2:	2201      	movs	r2, #1
 80010c4:	701a      	strb	r2, [r3, #0]
  }

  /* Process unlocked */
  __HAL_UNLOCK(hadc);
 80010c6:	687b      	ldr	r3, [r7, #4]
 80010c8:	2250      	movs	r2, #80	@ 0x50
 80010ca:	2100      	movs	r1, #0
 80010cc:	5499      	strb	r1, [r3, r2]

  /* Return function status */
  return tmp_hal_status;
 80010ce:	2317      	movs	r3, #23
 80010d0:	18fb      	adds	r3, r7, r3
 80010d2:	781b      	ldrb	r3, [r3, #0]
}
 80010d4:	0018      	movs	r0, r3
 80010d6:	46bd      	mov	sp, r7
 80010d8:	b006      	add	sp, #24
 80010da:	bd80      	pop	{r7, pc}
 80010dc:	fffffefd 	.word	0xfffffefd

080010e0 <__NVIC_SetPriority>:
  \param [in]      IRQn  Interrupt number.
  \param [in]  priority  Priority to set.
  \note    The priority cannot be set for every processor exception.
 */
__STATIC_INLINE void __NVIC_SetPriority(IRQn_Type IRQn, uint32_t priority)
{
 80010e0:	b590      	push	{r4, r7, lr}
 80010e2:	b083      	sub	sp, #12
 80010e4:	af00      	add	r7, sp, #0
 80010e6:	0002      	movs	r2, r0
 80010e8:	6039      	str	r1, [r7, #0]
 80010ea:	1dfb      	adds	r3, r7, #7
 80010ec:	701a      	strb	r2, [r3, #0]
  if ((int32_t)(IRQn) >= 0)
 80010ee:	1dfb      	adds	r3, r7, #7
 80010f0:	781b      	ldrb	r3, [r3, #0]
 80010f2:	2b7f      	cmp	r3, #127	@ 0x7f
 80010f4:	d828      	bhi.n	8001148 <__NVIC_SetPriority+0x68>
  {
    NVIC->IP[_IP_IDX(IRQn)]  = ((uint32_t)(NVIC->IP[_IP_IDX(IRQn)]  & ~(0xFFUL << _BIT_SHIFT(IRQn))) |
 80010f6:	4a2f      	ldr	r2, [pc, #188]	@ (80011b4 <__NVIC_SetPriority+0xd4>)
 80010f8:	1dfb      	adds	r3, r7, #7
 80010fa:	781b      	ldrb	r3, [r3, #0]
 80010fc:	b25b      	sxtb	r3, r3
 80010fe:	089b      	lsrs	r3, r3, #2
 8001100:	33c0      	adds	r3, #192	@ 0xc0
 8001102:	009b      	lsls	r3, r3, #2
 8001104:	589b      	ldr	r3, [r3, r2]
 8001106:	1dfa      	adds	r2, r7, #7
 8001108:	7812      	ldrb	r2, [r2, #0]
 800110a:	0011      	movs	r1, r2
 800110c:	2203      	movs	r2, #3
 800110e:	400a      	ands	r2, r1
 8001110:	00d2      	lsls	r2, r2, #3
 8001112:	21ff      	movs	r1, #255	@ 0xff
 8001114:	4091      	lsls	r1, r2
 8001116:	000a      	movs	r2, r1
 8001118:	43d2      	mvns	r2, r2
 800111a:	401a      	ands	r2, r3
 800111c:	0011      	movs	r1, r2
       (((priority << (8U - __NVIC_PRIO_BITS)) & (uint32_t)0xFFUL) << _BIT_SHIFT(IRQn)));
 800111e:	683b      	ldr	r3, [r7, #0]
 8001120:	019b      	lsls	r3, r3, #6
 8001122:	22ff      	movs	r2, #255	@ 0xff
 8001124:	401a      	ands	r2, r3
 8001126:	1dfb      	adds	r3, r7, #7
 8001128:	781b      	ldrb	r3, [r3, #0]
 800112a:	0018      	movs	r0, r3
 800112c:	2303      	movs	r3, #3
 800112e:	4003      	ands	r3, r0
 8001130:	00db      	lsls	r3, r3, #3
 8001132:	409a      	lsls	r2, r3
    NVIC->IP[_IP_IDX(IRQn)]  = ((uint32_t)(NVIC->IP[_IP_IDX(IRQn)]  & ~(0xFFUL << _BIT_SHIFT(IRQn))) |
 8001134:	481f      	ldr	r0, [pc, #124]	@ (80011b4 <__NVIC_SetPriority+0xd4>)
 8001136:	1dfb      	adds	r3, r7, #7
 8001138:	781b      	ldrb	r3, [r3, #0]
 800113a:	b25b      	sxtb	r3, r3
 800113c:	089b      	lsrs	r3, r3, #2
 800113e:	430a      	orrs	r2, r1
 8001140:	33c0      	adds	r3, #192	@ 0xc0
 8001142:	009b      	lsls	r3, r3, #2
 8001144:	501a      	str	r2, [r3, r0]
  else
  {
    SCB->SHP[_SHP_IDX(IRQn)] = ((uint32_t)(SCB->SHP[_SHP_IDX(IRQn)] & ~(0xFFUL << _BIT_SHIFT(IRQn))) |
       (((priority << (8U - __NVIC_PRIO_BITS)) & (uint32_t)0xFFUL) << _BIT_SHIFT(IRQn)));
  }
}
 8001146:	e031      	b.n	80011ac <__NVIC_SetPriority+0xcc>
    SCB->SHP[_SHP_IDX(IRQn)] = ((uint32_t)(SCB->SHP[_SHP_IDX(IRQn)] & ~(0xFFUL << _BIT_SHIFT(IRQn))) |
 8001148:	4a1b      	ldr	r2, [pc, #108]	@ (80011b8 <__NVIC_SetPriority+0xd8>)
 800114a:	1dfb      	adds	r3, r7, #7
 800114c:	781b      	ldrb	r3, [r3, #0]
 800114e:	0019      	movs	r1, r3
 8001150:	230f      	movs	r3, #15
 8001152:	400b      	ands	r3, r1
 8001154:	3b08      	subs	r3, #8
 8001156:	089b      	lsrs	r3, r3, #2
 8001158:	3306      	adds	r3, #6
 800115a:	009b      	lsls	r3, r3, #2
 800115c:	18d3      	adds	r3, r2, r3
 800115e:	3304      	adds	r3, #4
 8001160:	681b      	ldr	r3, [r3, #0]
 8001162:	1dfa      	adds	r2, r7, #7
 8001164:	7812      	ldrb	r2, [r2, #0]
 8001166:	0011      	movs	r1, r2
 8001168:	2203      	movs	r2, #3
 800116a:	400a      	ands	r2, r1
 800116c:	00d2      	lsls	r2, r2, #3
 800116e:	21ff      	movs	r1, #255	@ 0xff
 8001170:	4091      	lsls	r1, r2
 8001172:	000a      	movs	r2, r1
 8001174:	43d2      	mvns	r2, r2
 8001176:	401a      	ands	r2, r3
 8001178:	0011      	movs	r1, r2
       (((priority << (8U - __NVIC_PRIO_BITS)) & (uint32_t)0xFFUL) << _BIT_SHIFT(IRQn)));
 800117a:	683b      	ldr	r3, [r7, #0]
 800117c:	019b      	lsls	r3, r3, #6
 800117e:	22ff      	movs	r2, #255	@ 0xff
 8001180:	401a      	ands	r2, r3
 8001182:	1dfb      	adds	r3, r7, #7
 8001184:	781b      	ldrb	r3, [r3, #0]
 8001186:	0018      	movs	r0, r3
 8001188:	2303      	movs	r3, #3
 800118a:	4003      	ands	r3, r0
 800118c:	00db      	lsls	r3, r3, #3
 800118e:	409a      	lsls	r2, r3
    SCB->SHP[_SHP_IDX(IRQn)] = ((uint32_t)(SCB->SHP[_SHP_IDX(IRQn)] & ~(0xFFUL << _BIT_SHIFT(IRQn))) |
 8001190:	4809      	ldr	r0, [pc, #36]	@ (80011b8 <__NVIC_SetPriority+0xd8>)
 8001192:	1dfb      	adds	r3, r7, #7
 8001194:	781b      	ldrb	r3, [r3, #0]
 8001196:	001c      	movs	r4, r3
 8001198:	230f      	movs	r3, #15
 800119a:	4023      	ands	r3, r4
 800119c:	3b08      	subs	r3, #8
 800119e:	089b      	lsrs	r3, r3, #2
 80011a0:	430a      	orrs	r2, r1
 80011a2:	3306      	adds	r3, #6
 80011a4:	009b      	lsls	r3, r3, #2
 80011a6:	18c3      	adds	r3, r0, r3
 80011a8:	3304      	adds	r3, #4
 80011aa:	601a      	str	r2, [r3, #0]
}
 80011ac:	46c0      	nop			@ (mov r8, r8)
 80011ae:	46bd      	mov	sp, r7
 80011b0:	b003      	add	sp, #12
 80011b2:	bd90      	pop	{r4, r7, pc}
 80011b4:	e000e100 	.word	0xe000e100
 80011b8:	e000ed00 	.word	0xe000ed00

080011bc <SysTick_Config>:
  \note    When the variable <b>__Vendor_SysTickConfig</b> is set to 1, then the
           function <b>SysTick_Config</b> is not included. In this case, the file <b><i>device</i>.h</b>
           must contain a vendor-specific implementation of this function.
 */
__STATIC_INLINE uint32_t SysTick_Config(uint32_t ticks)
{
 80011bc:	b580      	push	{r7, lr}
 80011be:	b082      	sub	sp, #8
 80011c0:	af00      	add	r7, sp, #0
 80011c2:	6078      	str	r0, [r7, #4]
  if ((ticks - 1UL) > SysTick_LOAD_RELOAD_Msk)
 80011c4:	687b      	ldr	r3, [r7, #4]
 80011c6:	1e5a      	subs	r2, r3, #1
 80011c8:	2380      	movs	r3, #128	@ 0x80
 80011ca:	045b      	lsls	r3, r3, #17
 80011cc:	429a      	cmp	r2, r3
 80011ce:	d301      	bcc.n	80011d4 <SysTick_Config+0x18>
  {
    return (1UL);                                                   /* Reload value impossible */
 80011d0:	2301      	movs	r3, #1
 80011d2:	e010      	b.n	80011f6 <SysTick_Config+0x3a>
  }

  SysTick->LOAD  = (uint32_t)(ticks - 1UL);                         /* set reload register */
 80011d4:	4b0a      	ldr	r3, [pc, #40]	@ (8001200 <SysTick_Config+0x44>)
 80011d6:	687a      	ldr	r2, [r7, #4]
 80011d8:	3a01      	subs	r2, #1
 80011da:	605a      	str	r2, [r3, #4]
  NVIC_SetPriority (SysTick_IRQn, (1UL << __NVIC_PRIO_BITS) - 1UL); /* set Priority for Systick Interrupt */
 80011dc:	2301      	movs	r3, #1
 80011de:	425b      	negs	r3, r3
 80011e0:	2103      	movs	r1, #3
 80011e2:	0018      	movs	r0, r3
 80011e4:	f7ff ff7c 	bl	80010e0 <__NVIC_SetPriority>
  SysTick->VAL   = 0UL;                                             /* Load the SysTick Counter Value */
 80011e8:	4b05      	ldr	r3, [pc, #20]	@ (8001200 <SysTick_Config+0x44>)
 80011ea:	2200      	movs	r2, #0
 80011ec:	609a      	str	r2, [r3, #8]
  SysTick->CTRL  = SysTick_CTRL_CLKSOURCE_Msk |
 80011ee:	4b04      	ldr	r3, [pc, #16]	@ (8001200 <SysTick_Config+0x44>)
 80011f0:	2207      	movs	r2, #7
 80011f2:	601a      	str	r2, [r3, #0]
                   SysTick_CTRL_TICKINT_Msk   |
                   SysTick_CTRL_ENABLE_Msk;                         /* Enable SysTick IRQ and SysTick Timer */
  return (0UL);                                                     /* Function successful */
 80011f4:	2300      	movs	r3, #0
}
 80011f6:	0018      	movs	r0, r3
 80011f8:	46bd      	mov	sp, r7
 80011fa:	b002      	add	sp, #8
 80011fc:	bd80      	pop	{r7, pc}
 80011fe:	46c0      	nop			@ (mov r8, r8)
 8001200:	e000e010 	.word	0xe000e010

08001204 <HAL_NVIC_SetPriority>:
  *         with stm32l0xx devices, this parameter is a dummy value and it is ignored, because 
  *         no subpriority supported in Cortex M0+ based products.   
  * @retval None
  */
void HAL_NVIC_SetPriority(IRQn_Type IRQn, uint32_t PreemptPriority, uint32_t SubPriority)
{ 
 8001204:	b580      	push	{r7, lr}
 8001206:	b084      	sub	sp, #16
 8001208:	af00      	add	r7, sp, #0
 800120a:	60b9      	str	r1, [r7, #8]
 800120c:	607a      	str	r2, [r7, #4]
 800120e:	210f      	movs	r1, #15
 8001210:	187b      	adds	r3, r7, r1
 8001212:	1c02      	adds	r2, r0, #0
 8001214:	701a      	strb	r2, [r3, #0]
    /* Check the parameters */
  assert_param(IS_NVIC_PREEMPTION_PRIORITY(PreemptPriority));
  NVIC_SetPriority(IRQn,PreemptPriority);
 8001216:	68ba      	ldr	r2, [r7, #8]
 8001218:	187b      	adds	r3, r7, r1
 800121a:	781b      	ldrb	r3, [r3, #0]
 800121c:	b25b      	sxtb	r3, r3
 800121e:	0011      	movs	r1, r2
 8001220:	0018      	movs	r0, r3
 8001222:	f7ff ff5d 	bl	80010e0 <__NVIC_SetPriority>

  /* Prevent unused argument(s) compilation warning */
  UNUSED(SubPriority);

}
 8001226:	46c0      	nop			@ (mov r8, r8)
 8001228:	46bd      	mov	sp, r7
 800122a:	b004      	add	sp, #16
 800122c:	bd80      	pop	{r7, pc}

0800122e <HAL_SYSTICK_Config>:
  * @param  TicksNumb Specifies the ticks Number of ticks between two interrupts.
  * @retval status:  - 0  Function succeeded.
  *                  - 1  Function failed.
  */
uint32_t HAL_SYSTICK_Config(uint32_t TicksNumb)
{
 800122e:	b580      	push	{r7, lr}
 8001230:	b082      	sub	sp, #8
 8001232:	af00      	add	r7, sp, #0
 8001234:	6078      	str	r0, [r7, #4]
   return SysTick_Config(TicksNumb);
 8001236:	687b      	ldr	r3, [r7, #4]
 8001238:	0018      	movs	r0, r3
 800123a:	f7ff ffbf 	bl	80011bc <SysTick_Config>
 800123e:	0003      	movs	r3, r0
}
 8001240:	0018      	movs	r0, r3
 8001242:	46bd      	mov	sp, r7
 8001244:	b002      	add	sp, #8
 8001246:	bd80      	pop	{r7, pc}

08001248 <HAL_GPIO_Init>:
  * @param  GPIO_Init pointer to a GPIO_InitTypeDef structure that contains
  *                    the configuration information for the specified GPIO peripheral.
  * @retval None
  */
void HAL_GPIO_Init(GPIO_TypeDef  *GPIOx, GPIO_InitTypeDef *GPIO_Init)
{
 8001248:	b580      	push	{r7, lr}
 800124a:	b086      	sub	sp, #24
 800124c:	af00      	add	r7, sp, #0
 800124e:	6078      	str	r0, [r7, #4]
 8001250:	6039      	str	r1, [r7, #0]
  uint32_t position = 0x00U;
 8001252:	2300      	movs	r3, #0
 8001254:	617b      	str	r3, [r7, #20]
  uint32_t iocurrent = 0x00U;
 8001256:	2300      	movs	r3, #0
 8001258:	60fb      	str	r3, [r7, #12]
  uint32_t temp = 0x00U;
 800125a:	2300      	movs	r3, #0
 800125c:	613b      	str	r3, [r7, #16]
  /* Check the parameters */
  assert_param(IS_GPIO_MODE(GPIO_Init->Mode));
  assert_param(IS_GPIO_PIN_AVAILABLE(GPIOx, (GPIO_Init->Pin)));

  /* Configure the port pins */
  while (((GPIO_Init->Pin) >> position) != 0)
 800125e:	e149      	b.n	80014f4 <HAL_GPIO_Init+0x2ac>
  {
    /* Get the IO position */
    iocurrent = (GPIO_Init->Pin) & (1U << position);
 8001260:	683b      	ldr	r3, [r7, #0]
 8001262:	681b      	ldr	r3, [r3, #0]
 8001264:	2101      	movs	r1, #1
 8001266:	697a      	ldr	r2, [r7, #20]
 8001268:	4091      	lsls	r1, r2
 800126a:	000a      	movs	r2, r1
 800126c:	4013      	ands	r3, r2
 800126e:	60fb      	str	r3, [r7, #12]

    if (iocurrent)
 8001270:	68fb      	ldr	r3, [r7, #12]
 8001272:	2b00      	cmp	r3, #0
 8001274:	d100      	bne.n	8001278 <HAL_GPIO_Init+0x30>
 8001276:	e13a      	b.n	80014ee <HAL_GPIO_Init+0x2a6>
    {
      /*--------------------- GPIO Mode Configuration ------------------------*/
      /* In case of Output or Alternate function mode selection */
      if (((GPIO_Init->Mode & GPIO_MODE) == MODE_OUTPUT) ||
 8001278:	683b      	ldr	r3, [r7, #0]
 800127a:	685b      	ldr	r3, [r3, #4]
 800127c:	2203      	movs	r2, #3
 800127e:	4013      	ands	r3, r2
 8001280:	2b01      	cmp	r3, #1
 8001282:	d005      	beq.n	8001290 <HAL_GPIO_Init+0x48>
          ((GPIO_Init->Mode & GPIO_MODE) == MODE_AF))
 8001284:	683b      	ldr	r3, [r7, #0]
 8001286:	685b      	ldr	r3, [r3, #4]
 8001288:	2203      	movs	r2, #3
 800128a:	4013      	ands	r3, r2
      if (((GPIO_Init->Mode & GPIO_MODE) == MODE_OUTPUT) ||
 800128c:	2b02      	cmp	r3, #2
 800128e:	d130      	bne.n	80012f2 <HAL_GPIO_Init+0xaa>
      {
        /* Check the Speed parameter */
        assert_param(IS_GPIO_SPEED(GPIO_Init->Speed));
        /* Configure the IO Speed */
        temp = GPIOx->OSPEEDR;
 8001290:	687b      	ldr	r3, [r7, #4]
 8001292:	689b      	ldr	r3, [r3, #8]
 8001294:	613b      	str	r3, [r7, #16]
        temp &= ~(GPIO_OSPEEDER_OSPEED0 << (position * 2U));
 8001296:	697b      	ldr	r3, [r7, #20]
 8001298:	005b      	lsls	r3, r3, #1
 800129a:	2203      	movs	r2, #3
 800129c:	409a      	lsls	r2, r3
 800129e:	0013      	movs	r3, r2
 80012a0:	43da      	mvns	r2, r3
 80012a2:	693b      	ldr	r3, [r7, #16]
 80012a4:	4013      	ands	r3, r2
 80012a6:	613b      	str	r3, [r7, #16]
        temp |= (GPIO_Init->Speed << (position * 2U));
 80012a8:	683b      	ldr	r3, [r7, #0]
 80012aa:	68da      	ldr	r2, [r3, #12]
 80012ac:	697b      	ldr	r3, [r7, #20]
 80012ae:	005b      	lsls	r3, r3, #1
 80012b0:	409a      	lsls	r2, r3
 80012b2:	0013      	movs	r3, r2
 80012b4:	693a      	ldr	r2, [r7, #16]
 80012b6:	4313      	orrs	r3, r2
 80012b8:	613b      	str	r3, [r7, #16]
        GPIOx->OSPEEDR = temp;
 80012ba:	687b      	ldr	r3, [r7, #4]
 80012bc:	693a      	ldr	r2, [r7, #16]
 80012be:	609a      	str	r2, [r3, #8]

        /* Configure the IO Output Type */
        temp = GPIOx->OTYPER;
 80012c0:	687b      	ldr	r3, [r7, #4]
 80012c2:	685b      	ldr	r3, [r3, #4]
 80012c4:	613b      	str	r3, [r7, #16]
        temp &= ~(GPIO_OTYPER_OT_0 << position) ;
 80012c6:	2201      	movs	r2, #1
 80012c8:	697b      	ldr	r3, [r7, #20]
 80012ca:	409a      	lsls	r2, r3
 80012cc:	0013      	movs	r3, r2
 80012ce:	43da      	mvns	r2, r3
 80012d0:	693b      	ldr	r3, [r7, #16]
 80012d2:	4013      	ands	r3, r2
 80012d4:	613b      	str	r3, [r7, #16]
        temp |= (((GPIO_Init->Mode & OUTPUT_TYPE) >> OUTPUT_TYPE_Pos) << position);
 80012d6:	683b      	ldr	r3, [r7, #0]
 80012d8:	685b      	ldr	r3, [r3, #4]
 80012da:	091b      	lsrs	r3, r3, #4
 80012dc:	2201      	movs	r2, #1
 80012de:	401a      	ands	r2, r3
 80012e0:	697b      	ldr	r3, [r7, #20]
 80012e2:	409a      	lsls	r2, r3
 80012e4:	0013      	movs	r3, r2
 80012e6:	693a      	ldr	r2, [r7, #16]
 80012e8:	4313      	orrs	r3, r2
 80012ea:	613b      	str	r3, [r7, #16]
        GPIOx->OTYPER = temp;
 80012ec:	687b      	ldr	r3, [r7, #4]
 80012ee:	693a      	ldr	r2, [r7, #16]
 80012f0:	605a      	str	r2, [r3, #4]
      }

      if ((GPIO_Init->Mode & GPIO_MODE) != MODE_ANALOG)
 80012f2:	683b      	ldr	r3, [r7, #0]
 80012f4:	685b      	ldr	r3, [r3, #4]
 80012f6:	2203      	movs	r2, #3
 80012f8:	4013      	ands	r3, r2
 80012fa:	2b03      	cmp	r3, #3
 80012fc:	d017      	beq.n	800132e <HAL_GPIO_Init+0xe6>
      {
        /* Check the Pull parameter */
        assert_param(IS_GPIO_PULL(GPIO_Init->Pull));

        /* Activate the Pull-up or Pull down resistor for the current IO */
        temp = GPIOx->PUPDR;
 80012fe:	687b      	ldr	r3, [r7, #4]
 8001300:	68db      	ldr	r3, [r3, #12]
 8001302:	613b      	str	r3, [r7, #16]
        temp &= ~(GPIO_PUPDR_PUPD0 << (position * 2U));
 8001304:	697b      	ldr	r3, [r7, #20]
 8001306:	005b      	lsls	r3, r3, #1
 8001308:	2203      	movs	r2, #3
 800130a:	409a      	lsls	r2, r3
 800130c:	0013      	movs	r3, r2
 800130e:	43da      	mvns	r2, r3
 8001310:	693b      	ldr	r3, [r7, #16]
 8001312:	4013      	ands	r3, r2
 8001314:	613b      	str	r3, [r7, #16]
        temp |= ((GPIO_Init->Pull) << (position * 2U));
 8001316:	683b      	ldr	r3, [r7, #0]
 8001318:	689a      	ldr	r2, [r3, #8]
 800131a:	697b      	ldr	r3, [r7, #20]
 800131c:	005b      	lsls	r3, r3, #1
 800131e:	409a      	lsls	r2, r3
 8001320:	0013      	movs	r3, r2
 8001322:	693a      	ldr	r2, [r7, #16]
 8001324:	4313      	orrs	r3, r2
 8001326:	613b      	str	r3, [r7, #16]
        GPIOx->PUPDR = temp;
 8001328:	687b      	ldr	r3, [r7, #4]
 800132a:	693a      	ldr	r2, [r7, #16]
 800132c:	60da      	str	r2, [r3, #12]
      }

      /* In case of Alternate function mode selection */
      if ((GPIO_Init->Mode & GPIO_MODE) == MODE_AF)
 800132e:	683b      	ldr	r3, [r7, #0]
 8001330:	685b      	ldr	r3, [r3, #4]
 8001332:	2203      	movs	r2, #3
 8001334:	4013      	ands	r3, r2
 8001336:	2b02      	cmp	r3, #2
 8001338:	d123      	bne.n	8001382 <HAL_GPIO_Init+0x13a>
        /* Check the Alternate function parameters */
        assert_param(IS_GPIO_AF_INSTANCE(GPIOx));
        assert_param(IS_GPIO_AF(GPIO_Init->Alternate));

        /* Configure Alternate function mapped with the current IO */
        temp = GPIOx->AFR[position >> 3U];
 800133a:	697b      	ldr	r3, [r7, #20]
 800133c:	08da      	lsrs	r2, r3, #3
 800133e:	687b      	ldr	r3, [r7, #4]
 8001340:	3208      	adds	r2, #8
 8001342:	0092      	lsls	r2, r2, #2
 8001344:	58d3      	ldr	r3, [r2, r3]
 8001346:	613b      	str	r3, [r7, #16]
        temp &= ~(0xFUL << ((uint32_t)(position & 0x07UL) * 4U));
 8001348:	697b      	ldr	r3, [r7, #20]
 800134a:	2207      	movs	r2, #7
 800134c:	4013      	ands	r3, r2
 800134e:	009b      	lsls	r3, r3, #2
 8001350:	220f      	movs	r2, #15
 8001352:	409a      	lsls	r2, r3
 8001354:	0013      	movs	r3, r2
 8001356:	43da      	mvns	r2, r3
 8001358:	693b      	ldr	r3, [r7, #16]
 800135a:	4013      	ands	r3, r2
 800135c:	613b      	str	r3, [r7, #16]
        temp |= ((uint32_t)(GPIO_Init->Alternate) << (((uint32_t)position & (uint32_t)0x07U) * 4U));
 800135e:	683b      	ldr	r3, [r7, #0]
 8001360:	691a      	ldr	r2, [r3, #16]
 8001362:	697b      	ldr	r3, [r7, #20]
 8001364:	2107      	movs	r1, #7
 8001366:	400b      	ands	r3, r1
 8001368:	009b      	lsls	r3, r3, #2
 800136a:	409a      	lsls	r2, r3
 800136c:	0013      	movs	r3, r2
 800136e:	693a      	ldr	r2, [r7, #16]
 8001370:	4313      	orrs	r3, r2
 8001372:	613b      	str	r3, [r7, #16]
        GPIOx->AFR[position >> 3U] = temp;
 8001374:	697b      	ldr	r3, [r7, #20]
 8001376:	08da      	lsrs	r2, r3, #3
 8001378:	687b      	ldr	r3, [r7, #4]
 800137a:	3208      	adds	r2, #8
 800137c:	0092      	lsls	r2, r2, #2
 800137e:	6939      	ldr	r1, [r7, #16]
 8001380:	50d1      	str	r1, [r2, r3]
      }

      /* Configure IO Direction mode (Input, Output, Alternate or Analog) */
      temp = GPIOx->MODER;
 8001382:	687b      	ldr	r3, [r7, #4]
 8001384:	681b      	ldr	r3, [r3, #0]
 8001386:	613b      	str	r3, [r7, #16]
      temp &= ~(GPIO_MODER_MODE0 << (position * 2U));
 8001388:	697b      	ldr	r3, [r7, #20]
 800138a:	005b      	lsls	r3, r3, #1
 800138c:	2203      	movs	r2, #3
 800138e:	409a      	lsls	r2, r3
 8001390:	0013      	movs	r3, r2
 8001392:	43da      	mvns	r2, r3
 8001394:	693b      	ldr	r3, [r7, #16]
 8001396:	4013      	ands	r3, r2
 8001398:	613b      	str	r3, [r7, #16]
      temp |= ((GPIO_Init->Mode & GPIO_MODE) << (position * 2U));
 800139a:	683b      	ldr	r3, [r7, #0]
 800139c:	685b      	ldr	r3, [r3, #4]
 800139e:	2203      	movs	r2, #3
 80013a0:	401a      	ands	r2, r3
 80013a2:	697b      	ldr	r3, [r7, #20]
 80013a4:	005b      	lsls	r3, r3, #1
 80013a6:	409a      	lsls	r2, r3
 80013a8:	0013      	movs	r3, r2
 80013aa:	693a      	ldr	r2, [r7, #16]
 80013ac:	4313      	orrs	r3, r2
 80013ae:	613b      	str	r3, [r7, #16]
      GPIOx->MODER = temp;
 80013b0:	687b      	ldr	r3, [r7, #4]
 80013b2:	693a      	ldr	r2, [r7, #16]
 80013b4:	601a      	str	r2, [r3, #0]

      /*--------------------- EXTI Mode Configuration ------------------------*/
      /* Configure the External Interrupt or event for the current IO */
      if ((GPIO_Init->Mode & EXTI_MODE) != 0x00U)
 80013b6:	683b      	ldr	r3, [r7, #0]
 80013b8:	685a      	ldr	r2, [r3, #4]
 80013ba:	23c0      	movs	r3, #192	@ 0xc0
 80013bc:	029b      	lsls	r3, r3, #10
 80013be:	4013      	ands	r3, r2
 80013c0:	d100      	bne.n	80013c4 <HAL_GPIO_Init+0x17c>
 80013c2:	e094      	b.n	80014ee <HAL_GPIO_Init+0x2a6>
      {
        /* Enable SYSCFG Clock */
        __HAL_RCC_SYSCFG_CLK_ENABLE();
 80013c4:	4b51      	ldr	r3, [pc, #324]	@ (800150c <HAL_GPIO_Init+0x2c4>)
 80013c6:	6b5a      	ldr	r2, [r3, #52]	@ 0x34
 80013c8:	4b50      	ldr	r3, [pc, #320]	@ (800150c <HAL_GPIO_Init+0x2c4>)
 80013ca:	2101      	movs	r1, #1
 80013cc:	430a      	orrs	r2, r1
 80013ce:	635a      	str	r2, [r3, #52]	@ 0x34

        temp = SYSCFG->EXTICR[position >> 2U];
 80013d0:	4a4f      	ldr	r2, [pc, #316]	@ (8001510 <HAL_GPIO_Init+0x2c8>)
 80013d2:	697b      	ldr	r3, [r7, #20]
 80013d4:	089b      	lsrs	r3, r3, #2
 80013d6:	3302      	adds	r3, #2
 80013d8:	009b      	lsls	r3, r3, #2
 80013da:	589b      	ldr	r3, [r3, r2]
 80013dc:	613b      	str	r3, [r7, #16]
        CLEAR_BIT(temp, (0x0FUL) << (4U * (position & 0x03U)));
 80013de:	697b      	ldr	r3, [r7, #20]
 80013e0:	2203      	movs	r2, #3
 80013e2:	4013      	ands	r3, r2
 80013e4:	009b      	lsls	r3, r3, #2
 80013e6:	220f      	movs	r2, #15
 80013e8:	409a      	lsls	r2, r3
 80013ea:	0013      	movs	r3, r2
 80013ec:	43da      	mvns	r2, r3
 80013ee:	693b      	ldr	r3, [r7, #16]
 80013f0:	4013      	ands	r3, r2
 80013f2:	613b      	str	r3, [r7, #16]
        SET_BIT(temp, (GPIO_GET_INDEX(GPIOx)) << (4 * (position & 0x03U)));
 80013f4:	687a      	ldr	r2, [r7, #4]
 80013f6:	23a0      	movs	r3, #160	@ 0xa0
 80013f8:	05db      	lsls	r3, r3, #23
 80013fa:	429a      	cmp	r2, r3
 80013fc:	d013      	beq.n	8001426 <HAL_GPIO_Init+0x1de>
 80013fe:	687b      	ldr	r3, [r7, #4]
 8001400:	4a44      	ldr	r2, [pc, #272]	@ (8001514 <HAL_GPIO_Init+0x2cc>)
 8001402:	4293      	cmp	r3, r2
 8001404:	d00d      	beq.n	8001422 <HAL_GPIO_Init+0x1da>
 8001406:	687b      	ldr	r3, [r7, #4]
 8001408:	4a43      	ldr	r2, [pc, #268]	@ (8001518 <HAL_GPIO_Init+0x2d0>)
 800140a:	4293      	cmp	r3, r2
 800140c:	d007      	beq.n	800141e <HAL_GPIO_Init+0x1d6>
 800140e:	687b      	ldr	r3, [r7, #4]
 8001410:	4a42      	ldr	r2, [pc, #264]	@ (800151c <HAL_GPIO_Init+0x2d4>)
 8001412:	4293      	cmp	r3, r2
 8001414:	d101      	bne.n	800141a <HAL_GPIO_Init+0x1d2>
 8001416:	2305      	movs	r3, #5
 8001418:	e006      	b.n	8001428 <HAL_GPIO_Init+0x1e0>
 800141a:	2306      	movs	r3, #6
 800141c:	e004      	b.n	8001428 <HAL_GPIO_Init+0x1e0>
 800141e:	2302      	movs	r3, #2
 8001420:	e002      	b.n	8001428 <HAL_GPIO_Init+0x1e0>
 8001422:	2301      	movs	r3, #1
 8001424:	e000      	b.n	8001428 <HAL_GPIO_Init+0x1e0>
 8001426:	2300      	movs	r3, #0
 8001428:	697a      	ldr	r2, [r7, #20]
 800142a:	2103      	movs	r1, #3
 800142c:	400a      	ands	r2, r1
 800142e:	0092      	lsls	r2, r2, #2
 8001430:	4093      	lsls	r3, r2
 8001432:	693a      	ldr	r2, [r7, #16]
 8001434:	4313      	orrs	r3, r2
 8001436:	613b      	str	r3, [r7, #16]
        SYSCFG->EXTICR[position >> 2U] = temp;
 8001438:	4935      	ldr	r1, [pc, #212]	@ (8001510 <HAL_GPIO_Init+0x2c8>)
 800143a:	697b      	ldr	r3, [r7, #20]
 800143c:	089b      	lsrs	r3, r3, #2
 800143e:	3302      	adds	r3, #2
 8001440:	009b      	lsls	r3, r3, #2
 8001442:	693a      	ldr	r2, [r7, #16]
 8001444:	505a      	str	r2, [r3, r1]

        /* Clear Rising Falling edge configuration */
        temp = EXTI->RTSR;
 8001446:	4b36      	ldr	r3, [pc, #216]	@ (8001520 <HAL_GPIO_Init+0x2d8>)
 8001448:	689b      	ldr	r3, [r3, #8]
 800144a:	613b      	str	r3, [r7, #16]
        temp &= ~((uint32_t)iocurrent);
 800144c:	68fb      	ldr	r3, [r7, #12]
 800144e:	43da      	mvns	r2, r3
 8001450:	693b      	ldr	r3, [r7, #16]
 8001452:	4013      	ands	r3, r2
 8001454:	613b      	str	r3, [r7, #16]
        if ((GPIO_Init->Mode & TRIGGER_RISING) != 0x00U)
 8001456:	683b      	ldr	r3, [r7, #0]
 8001458:	685a      	ldr	r2, [r3, #4]
 800145a:	2380      	movs	r3, #128	@ 0x80
 800145c:	035b      	lsls	r3, r3, #13
 800145e:	4013      	ands	r3, r2
 8001460:	d003      	beq.n	800146a <HAL_GPIO_Init+0x222>
        {
          temp |= iocurrent;
 8001462:	693a      	ldr	r2, [r7, #16]
 8001464:	68fb      	ldr	r3, [r7, #12]
 8001466:	4313      	orrs	r3, r2
 8001468:	613b      	str	r3, [r7, #16]
        }
        EXTI->RTSR = temp;
 800146a:	4b2d      	ldr	r3, [pc, #180]	@ (8001520 <HAL_GPIO_Init+0x2d8>)
 800146c:	693a      	ldr	r2, [r7, #16]
 800146e:	609a      	str	r2, [r3, #8]

        temp = EXTI->FTSR;
 8001470:	4b2b      	ldr	r3, [pc, #172]	@ (8001520 <HAL_GPIO_Init+0x2d8>)
 8001472:	68db      	ldr	r3, [r3, #12]
 8001474:	613b      	str	r3, [r7, #16]
        temp &= ~((uint32_t)iocurrent);
 8001476:	68fb      	ldr	r3, [r7, #12]
 8001478:	43da      	mvns	r2, r3
 800147a:	693b      	ldr	r3, [r7, #16]
 800147c:	4013      	ands	r3, r2
 800147e:	613b      	str	r3, [r7, #16]
        if ((GPIO_Init->Mode & TRIGGER_FALLING) != 0x00U)
 8001480:	683b      	ldr	r3, [r7, #0]
 8001482:	685a      	ldr	r2, [r3, #4]
 8001484:	2380      	movs	r3, #128	@ 0x80
 8001486:	039b      	lsls	r3, r3, #14
 8001488:	4013      	ands	r3, r2
 800148a:	d003      	beq.n	8001494 <HAL_GPIO_Init+0x24c>
        {
          temp |= iocurrent;
 800148c:	693a      	ldr	r2, [r7, #16]
 800148e:	68fb      	ldr	r3, [r7, #12]
 8001490:	4313      	orrs	r3, r2
 8001492:	613b      	str	r3, [r7, #16]
        }
        EXTI->FTSR = temp;
 8001494:	4b22      	ldr	r3, [pc, #136]	@ (8001520 <HAL_GPIO_Init+0x2d8>)
 8001496:	693a      	ldr	r2, [r7, #16]
 8001498:	60da      	str	r2, [r3, #12]

        temp = EXTI->EMR;
 800149a:	4b21      	ldr	r3, [pc, #132]	@ (8001520 <HAL_GPIO_Init+0x2d8>)
 800149c:	685b      	ldr	r3, [r3, #4]
 800149e:	613b      	str	r3, [r7, #16]
        temp &= ~((uint32_t)iocurrent);
 80014a0:	68fb      	ldr	r3, [r7, #12]
 80014a2:	43da      	mvns	r2, r3
 80014a4:	693b      	ldr	r3, [r7, #16]
 80014a6:	4013      	ands	r3, r2
 80014a8:	613b      	str	r3, [r7, #16]
        if ((GPIO_Init->Mode & EXTI_EVT) != 0x00U)
 80014aa:	683b      	ldr	r3, [r7, #0]
 80014ac:	685a      	ldr	r2, [r3, #4]
 80014ae:	2380      	movs	r3, #128	@ 0x80
 80014b0:	029b      	lsls	r3, r3, #10
 80014b2:	4013      	ands	r3, r2
 80014b4:	d003      	beq.n	80014be <HAL_GPIO_Init+0x276>
        {
          temp |= iocurrent;
 80014b6:	693a      	ldr	r2, [r7, #16]
 80014b8:	68fb      	ldr	r3, [r7, #12]
 80014ba:	4313      	orrs	r3, r2
 80014bc:	613b      	str	r3, [r7, #16]
        }
        EXTI->EMR = temp;
 80014be:	4b18      	ldr	r3, [pc, #96]	@ (8001520 <HAL_GPIO_Init+0x2d8>)
 80014c0:	693a      	ldr	r2, [r7, #16]
 80014c2:	605a      	str	r2, [r3, #4]

        /* Clear EXTI line configuration */
        temp = EXTI->IMR;
 80014c4:	4b16      	ldr	r3, [pc, #88]	@ (8001520 <HAL_GPIO_Init+0x2d8>)
 80014c6:	681b      	ldr	r3, [r3, #0]
 80014c8:	613b      	str	r3, [r7, #16]
        temp &= ~((uint32_t)iocurrent);
 80014ca:	68fb      	ldr	r3, [r7, #12]
 80014cc:	43da      	mvns	r2, r3
 80014ce:	693b      	ldr	r3, [r7, #16]
 80014d0:	4013      	ands	r3, r2
 80014d2:	613b      	str	r3, [r7, #16]
        if ((GPIO_Init->Mode & EXTI_IT) != 0x00U)
 80014d4:	683b      	ldr	r3, [r7, #0]
 80014d6:	685a      	ldr	r2, [r3, #4]
 80014d8:	2380      	movs	r3, #128	@ 0x80
 80014da:	025b      	lsls	r3, r3, #9
 80014dc:	4013      	ands	r3, r2
 80014de:	d003      	beq.n	80014e8 <HAL_GPIO_Init+0x2a0>
        {
          temp |= iocurrent;
 80014e0:	693a      	ldr	r2, [r7, #16]
 80014e2:	68fb      	ldr	r3, [r7, #12]
 80014e4:	4313      	orrs	r3, r2
 80014e6:	613b      	str	r3, [r7, #16]
        }
        EXTI->IMR = temp;
 80014e8:	4b0d      	ldr	r3, [pc, #52]	@ (8001520 <HAL_GPIO_Init+0x2d8>)
 80014ea:	693a      	ldr	r2, [r7, #16]
 80014ec:	601a      	str	r2, [r3, #0]
      }
    }
    position++;
 80014ee:	697b      	ldr	r3, [r7, #20]
 80014f0:	3301      	adds	r3, #1
 80014f2:	617b      	str	r3, [r7, #20]
  while (((GPIO_Init->Pin) >> position) != 0)
 80014f4:	683b      	ldr	r3, [r7, #0]
 80014f6:	681a      	ldr	r2, [r3, #0]
 80014f8:	697b      	ldr	r3, [r7, #20]
 80014fa:	40da      	lsrs	r2, r3
 80014fc:	1e13      	subs	r3, r2, #0
 80014fe:	d000      	beq.n	8001502 <HAL_GPIO_Init+0x2ba>
 8001500:	e6ae      	b.n	8001260 <HAL_GPIO_Init+0x18>
  }
}
 8001502:	46c0      	nop			@ (mov r8, r8)
 8001504:	46c0      	nop			@ (mov r8, r8)
 8001506:	46bd      	mov	sp, r7
 8001508:	b006      	add	sp, #24
 800150a:	bd80      	pop	{r7, pc}
 800150c:	40021000 	.word	0x40021000
 8001510:	40010000 	.word	0x40010000
 8001514:	50000400 	.word	0x50000400
 8001518:	50000800 	.word	0x50000800
 800151c:	50001c00 	.word	0x50001c00
 8001520:	40010400 	.word	0x40010400

08001524 <HAL_GPIO_WritePin>:
  *                        GPIO_PIN_RESET: to clear the port pin
  *                        GPIO_PIN_SET: to set the port pin
  * @retval None
  */
void HAL_GPIO_WritePin(GPIO_TypeDef *GPIOx, uint16_t GPIO_Pin, GPIO_PinState PinState)
{
 8001524:	b580      	push	{r7, lr}
 8001526:	b082      	sub	sp, #8
 8001528:	af00      	add	r7, sp, #0
 800152a:	6078      	str	r0, [r7, #4]
 800152c:	0008      	movs	r0, r1
 800152e:	0011      	movs	r1, r2
 8001530:	1cbb      	adds	r3, r7, #2
 8001532:	1c02      	adds	r2, r0, #0
 8001534:	801a      	strh	r2, [r3, #0]
 8001536:	1c7b      	adds	r3, r7, #1
 8001538:	1c0a      	adds	r2, r1, #0
 800153a:	701a      	strb	r2, [r3, #0]
  /* Check the parameters */
  assert_param(IS_GPIO_PIN_AVAILABLE(GPIOx, GPIO_Pin));
  assert_param(IS_GPIO_PIN_ACTION(PinState));

  if (PinState != GPIO_PIN_RESET)
 800153c:	1c7b      	adds	r3, r7, #1
 800153e:	781b      	ldrb	r3, [r3, #0]
 8001540:	2b00      	cmp	r3, #0
 8001542:	d004      	beq.n	800154e <HAL_GPIO_WritePin+0x2a>
  {
    GPIOx->BSRR = GPIO_Pin;
 8001544:	1cbb      	adds	r3, r7, #2
 8001546:	881a      	ldrh	r2, [r3, #0]
 8001548:	687b      	ldr	r3, [r7, #4]
 800154a:	619a      	str	r2, [r3, #24]
  }
  else
  {
    GPIOx->BRR = GPIO_Pin ;
  }
}
 800154c:	e003      	b.n	8001556 <HAL_GPIO_WritePin+0x32>
    GPIOx->BRR = GPIO_Pin ;
 800154e:	1cbb      	adds	r3, r7, #2
 8001550:	881a      	ldrh	r2, [r3, #0]
 8001552:	687b      	ldr	r3, [r7, #4]
 8001554:	629a      	str	r2, [r3, #40]	@ 0x28
}
 8001556:	46c0      	nop			@ (mov r8, r8)
 8001558:	46bd      	mov	sp, r7
 800155a:	b002      	add	sp, #8
 800155c:	bd80      	pop	{r7, pc}
	...

08001560 <HAL_RCC_OscConfig>:
  *         supported by this macro. User should request a transition to HSE Off
  *         first and then HSE On or HSE Bypass.
  * @retval HAL status
  */
HAL_StatusTypeDef HAL_RCC_OscConfig(const RCC_OscInitTypeDef  *RCC_OscInitStruct)
{
 8001560:	b5b0      	push	{r4, r5, r7, lr}
 8001562:	b08a      	sub	sp, #40	@ 0x28
 8001564:	af00      	add	r7, sp, #0
 8001566:	6078      	str	r0, [r7, #4]
  uint32_t hsi_state;
  HAL_StatusTypeDef status;
  uint32_t sysclk_source, pll_config;

  /* Check Null pointer */
  if(RCC_OscInitStruct == NULL)
 8001568:	687b      	ldr	r3, [r7, #4]
 800156a:	2b00      	cmp	r3, #0
 800156c:	d102      	bne.n	8001574 <HAL_RCC_OscConfig+0x14>
  {
    return HAL_ERROR;
 800156e:	2301      	movs	r3, #1
 8001570:	f000 fb6c 	bl	8001c4c <HAL_RCC_OscConfig+0x6ec>
  }

  /* Check the parameters */
  assert_param(IS_RCC_OSCILLATORTYPE(RCC_OscInitStruct->OscillatorType));

  sysclk_source = __HAL_RCC_GET_SYSCLK_SOURCE();
 8001574:	4bc8      	ldr	r3, [pc, #800]	@ (8001898 <HAL_RCC_OscConfig+0x338>)
 8001576:	68db      	ldr	r3, [r3, #12]
 8001578:	220c      	movs	r2, #12
 800157a:	4013      	ands	r3, r2
 800157c:	61fb      	str	r3, [r7, #28]
  pll_config = __HAL_RCC_GET_PLL_OSCSOURCE();
 800157e:	4bc6      	ldr	r3, [pc, #792]	@ (8001898 <HAL_RCC_OscConfig+0x338>)
 8001580:	68da      	ldr	r2, [r3, #12]
 8001582:	2380      	movs	r3, #128	@ 0x80
 8001584:	025b      	lsls	r3, r3, #9
 8001586:	4013      	ands	r3, r2
 8001588:	61bb      	str	r3, [r7, #24]

  /*------------------------------- HSE Configuration ------------------------*/
  if(((RCC_OscInitStruct->OscillatorType) & RCC_OSCILLATORTYPE_HSE) == RCC_OSCILLATORTYPE_HSE)
 800158a:	687b      	ldr	r3, [r7, #4]
 800158c:	681b      	ldr	r3, [r3, #0]
 800158e:	2201      	movs	r2, #1
 8001590:	4013      	ands	r3, r2
 8001592:	d100      	bne.n	8001596 <HAL_RCC_OscConfig+0x36>
 8001594:	e07d      	b.n	8001692 <HAL_RCC_OscConfig+0x132>
  {
    /* Check the parameters */
    assert_param(IS_RCC_HSE(RCC_OscInitStruct->HSEState));

    /* When the HSE is used as system clock or clock source for PLL in these cases it is not allowed to be disabled */
    if((sysclk_source == RCC_SYSCLKSOURCE_STATUS_HSE)
 8001596:	69fb      	ldr	r3, [r7, #28]
 8001598:	2b08      	cmp	r3, #8
 800159a:	d007      	beq.n	80015ac <HAL_RCC_OscConfig+0x4c>
       || ((sysclk_source == RCC_SYSCLKSOURCE_STATUS_PLLCLK) && (pll_config == RCC_PLLSOURCE_HSE)))
 800159c:	69fb      	ldr	r3, [r7, #28]
 800159e:	2b0c      	cmp	r3, #12
 80015a0:	d112      	bne.n	80015c8 <HAL_RCC_OscConfig+0x68>
 80015a2:	69ba      	ldr	r2, [r7, #24]
 80015a4:	2380      	movs	r3, #128	@ 0x80
 80015a6:	025b      	lsls	r3, r3, #9
 80015a8:	429a      	cmp	r2, r3
 80015aa:	d10d      	bne.n	80015c8 <HAL_RCC_OscConfig+0x68>
    {
      if((__HAL_RCC_GET_FLAG(RCC_FLAG_HSERDY) != 0U) && (RCC_OscInitStruct->HSEState == RCC_HSE_OFF))
 80015ac:	4bba      	ldr	r3, [pc, #744]	@ (8001898 <HAL_RCC_OscConfig+0x338>)
 80015ae:	681a      	ldr	r2, [r3, #0]
 80015b0:	2380      	movs	r3, #128	@ 0x80
 80015b2:	029b      	lsls	r3, r3, #10
 80015b4:	4013      	ands	r3, r2
 80015b6:	d100      	bne.n	80015ba <HAL_RCC_OscConfig+0x5a>
 80015b8:	e06a      	b.n	8001690 <HAL_RCC_OscConfig+0x130>
 80015ba:	687b      	ldr	r3, [r7, #4]
 80015bc:	685b      	ldr	r3, [r3, #4]
 80015be:	2b00      	cmp	r3, #0
 80015c0:	d166      	bne.n	8001690 <HAL_RCC_OscConfig+0x130>
      {
        return HAL_ERROR;
 80015c2:	2301      	movs	r3, #1
 80015c4:	f000 fb42 	bl	8001c4c <HAL_RCC_OscConfig+0x6ec>
      }
    }
    else
    {
      /* Set the new HSE configuration ---------------------------------------*/
      __HAL_RCC_HSE_CONFIG(RCC_OscInitStruct->HSEState);
 80015c8:	687b      	ldr	r3, [r7, #4]
 80015ca:	685a      	ldr	r2, [r3, #4]
 80015cc:	2380      	movs	r3, #128	@ 0x80
 80015ce:	025b      	lsls	r3, r3, #9
 80015d0:	429a      	cmp	r2, r3
 80015d2:	d107      	bne.n	80015e4 <HAL_RCC_OscConfig+0x84>
 80015d4:	4bb0      	ldr	r3, [pc, #704]	@ (8001898 <HAL_RCC_OscConfig+0x338>)
 80015d6:	681a      	ldr	r2, [r3, #0]
 80015d8:	4baf      	ldr	r3, [pc, #700]	@ (8001898 <HAL_RCC_OscConfig+0x338>)
 80015da:	2180      	movs	r1, #128	@ 0x80
 80015dc:	0249      	lsls	r1, r1, #9
 80015de:	430a      	orrs	r2, r1
 80015e0:	601a      	str	r2, [r3, #0]
 80015e2:	e027      	b.n	8001634 <HAL_RCC_OscConfig+0xd4>
 80015e4:	687b      	ldr	r3, [r7, #4]
 80015e6:	685a      	ldr	r2, [r3, #4]
 80015e8:	23a0      	movs	r3, #160	@ 0xa0
 80015ea:	02db      	lsls	r3, r3, #11
 80015ec:	429a      	cmp	r2, r3
 80015ee:	d10e      	bne.n	800160e <HAL_RCC_OscConfig+0xae>
 80015f0:	4ba9      	ldr	r3, [pc, #676]	@ (8001898 <HAL_RCC_OscConfig+0x338>)
 80015f2:	681a      	ldr	r2, [r3, #0]
 80015f4:	4ba8      	ldr	r3, [pc, #672]	@ (8001898 <HAL_RCC_OscConfig+0x338>)
 80015f6:	2180      	movs	r1, #128	@ 0x80
 80015f8:	02c9      	lsls	r1, r1, #11
 80015fa:	430a      	orrs	r2, r1
 80015fc:	601a      	str	r2, [r3, #0]
 80015fe:	4ba6      	ldr	r3, [pc, #664]	@ (8001898 <HAL_RCC_OscConfig+0x338>)
 8001600:	681a      	ldr	r2, [r3, #0]
 8001602:	4ba5      	ldr	r3, [pc, #660]	@ (8001898 <HAL_RCC_OscConfig+0x338>)
 8001604:	2180      	movs	r1, #128	@ 0x80
 8001606:	0249      	lsls	r1, r1, #9
 8001608:	430a      	orrs	r2, r1
 800160a:	601a      	str	r2, [r3, #0]
 800160c:	e012      	b.n	8001634 <HAL_RCC_OscConfig+0xd4>
 800160e:	4ba2      	ldr	r3, [pc, #648]	@ (8001898 <HAL_RCC_OscConfig+0x338>)
 8001610:	681a      	ldr	r2, [r3, #0]
 8001612:	4ba1      	ldr	r3, [pc, #644]	@ (8001898 <HAL_RCC_OscConfig+0x338>)
 8001614:	49a1      	ldr	r1, [pc, #644]	@ (800189c <HAL_RCC_OscConfig+0x33c>)
 8001616:	400a      	ands	r2, r1
 8001618:	601a      	str	r2, [r3, #0]
 800161a:	4b9f      	ldr	r3, [pc, #636]	@ (8001898 <HAL_RCC_OscConfig+0x338>)
 800161c:	681a      	ldr	r2, [r3, #0]
 800161e:	2380      	movs	r3, #128	@ 0x80
 8001620:	025b      	lsls	r3, r3, #9
 8001622:	4013      	ands	r3, r2
 8001624:	60fb      	str	r3, [r7, #12]
 8001626:	68fb      	ldr	r3, [r7, #12]
 8001628:	4b9b      	ldr	r3, [pc, #620]	@ (8001898 <HAL_RCC_OscConfig+0x338>)
 800162a:	681a      	ldr	r2, [r3, #0]
 800162c:	4b9a      	ldr	r3, [pc, #616]	@ (8001898 <HAL_RCC_OscConfig+0x338>)
 800162e:	499c      	ldr	r1, [pc, #624]	@ (80018a0 <HAL_RCC_OscConfig+0x340>)
 8001630:	400a      	ands	r2, r1
 8001632:	601a      	str	r2, [r3, #0]

      /* Check the HSE State */
      if(RCC_OscInitStruct->HSEState != RCC_HSE_OFF)
 8001634:	687b      	ldr	r3, [r7, #4]
 8001636:	685b      	ldr	r3, [r3, #4]
 8001638:	2b00      	cmp	r3, #0
 800163a:	d014      	beq.n	8001666 <HAL_RCC_OscConfig+0x106>
      {
        /* Get Start Tick */
        tickstart = HAL_GetTick();
 800163c:	f7ff f836 	bl	80006ac <HAL_GetTick>
 8001640:	0003      	movs	r3, r0
 8001642:	617b      	str	r3, [r7, #20]

        /* Wait till HSE is ready */
        while(__HAL_RCC_GET_FLAG(RCC_FLAG_HSERDY) == 0U)
 8001644:	e008      	b.n	8001658 <HAL_RCC_OscConfig+0xf8>
        {
          if((HAL_GetTick() - tickstart ) > HSE_TIMEOUT_VALUE)
 8001646:	f7ff f831 	bl	80006ac <HAL_GetTick>
 800164a:	0002      	movs	r2, r0
 800164c:	697b      	ldr	r3, [r7, #20]
 800164e:	1ad3      	subs	r3, r2, r3
 8001650:	2b64      	cmp	r3, #100	@ 0x64
 8001652:	d901      	bls.n	8001658 <HAL_RCC_OscConfig+0xf8>
          {
            return HAL_TIMEOUT;
 8001654:	2303      	movs	r3, #3
 8001656:	e2f9      	b.n	8001c4c <HAL_RCC_OscConfig+0x6ec>
        while(__HAL_RCC_GET_FLAG(RCC_FLAG_HSERDY) == 0U)
 8001658:	4b8f      	ldr	r3, [pc, #572]	@ (8001898 <HAL_RCC_OscConfig+0x338>)
 800165a:	681a      	ldr	r2, [r3, #0]
 800165c:	2380      	movs	r3, #128	@ 0x80
 800165e:	029b      	lsls	r3, r3, #10
 8001660:	4013      	ands	r3, r2
 8001662:	d0f0      	beq.n	8001646 <HAL_RCC_OscConfig+0xe6>
 8001664:	e015      	b.n	8001692 <HAL_RCC_OscConfig+0x132>
        }
      }
      else
      {
        /* Get Start Tick */
        tickstart = HAL_GetTick();
 8001666:	f7ff f821 	bl	80006ac <HAL_GetTick>
 800166a:	0003      	movs	r3, r0
 800166c:	617b      	str	r3, [r7, #20]

        /* Wait till HSE is disabled */
        while(__HAL_RCC_GET_FLAG(RCC_FLAG_HSERDY) != 0U)
 800166e:	e008      	b.n	8001682 <HAL_RCC_OscConfig+0x122>
        {
           if((HAL_GetTick() - tickstart ) > HSE_TIMEOUT_VALUE)
 8001670:	f7ff f81c 	bl	80006ac <HAL_GetTick>
 8001674:	0002      	movs	r2, r0
 8001676:	697b      	ldr	r3, [r7, #20]
 8001678:	1ad3      	subs	r3, r2, r3
 800167a:	2b64      	cmp	r3, #100	@ 0x64
 800167c:	d901      	bls.n	8001682 <HAL_RCC_OscConfig+0x122>
          {
            return HAL_TIMEOUT;
 800167e:	2303      	movs	r3, #3
 8001680:	e2e4      	b.n	8001c4c <HAL_RCC_OscConfig+0x6ec>
        while(__HAL_RCC_GET_FLAG(RCC_FLAG_HSERDY) != 0U)
 8001682:	4b85      	ldr	r3, [pc, #532]	@ (8001898 <HAL_RCC_OscConfig+0x338>)
 8001684:	681a      	ldr	r2, [r3, #0]
 8001686:	2380      	movs	r3, #128	@ 0x80
 8001688:	029b      	lsls	r3, r3, #10
 800168a:	4013      	ands	r3, r2
 800168c:	d1f0      	bne.n	8001670 <HAL_RCC_OscConfig+0x110>
 800168e:	e000      	b.n	8001692 <HAL_RCC_OscConfig+0x132>
      if((__HAL_RCC_GET_FLAG(RCC_FLAG_HSERDY) != 0U) && (RCC_OscInitStruct->HSEState == RCC_HSE_OFF))
 8001690:	46c0      	nop			@ (mov r8, r8)
        }
      }
    }
  }
  /*----------------------------- HSI Configuration --------------------------*/
  if(((RCC_OscInitStruct->OscillatorType) & RCC_OSCILLATORTYPE_HSI) == RCC_OSCILLATORTYPE_HSI)
 8001692:	687b      	ldr	r3, [r7, #4]
 8001694:	681b      	ldr	r3, [r3, #0]
 8001696:	2202      	movs	r2, #2
 8001698:	4013      	ands	r3, r2
 800169a:	d100      	bne.n	800169e <HAL_RCC_OscConfig+0x13e>
 800169c:	e099      	b.n	80017d2 <HAL_RCC_OscConfig+0x272>
  {
    /* Check the parameters */
    assert_param(IS_RCC_HSI(RCC_OscInitStruct->HSIState));
    assert_param(IS_RCC_CALIBRATION_VALUE(RCC_OscInitStruct->HSICalibrationValue));

    hsi_state = RCC_OscInitStruct->HSIState;
 800169e:	687b      	ldr	r3, [r7, #4]
 80016a0:	68db      	ldr	r3, [r3, #12]
 80016a2:	627b      	str	r3, [r7, #36]	@ 0x24

#if defined(RCC_CR_HSIOUTEN)
    if((hsi_state & RCC_HSI_OUTEN) != 0U)
 80016a4:	6a7b      	ldr	r3, [r7, #36]	@ 0x24
 80016a6:	2220      	movs	r2, #32
 80016a8:	4013      	ands	r3, r2
 80016aa:	d009      	beq.n	80016c0 <HAL_RCC_OscConfig+0x160>
    {
      /* HSI Output enable for timer requested */
      SET_BIT(RCC->CR, RCC_CR_HSIOUTEN);
 80016ac:	4b7a      	ldr	r3, [pc, #488]	@ (8001898 <HAL_RCC_OscConfig+0x338>)
 80016ae:	681a      	ldr	r2, [r3, #0]
 80016b0:	4b79      	ldr	r3, [pc, #484]	@ (8001898 <HAL_RCC_OscConfig+0x338>)
 80016b2:	2120      	movs	r1, #32
 80016b4:	430a      	orrs	r2, r1
 80016b6:	601a      	str	r2, [r3, #0]

      hsi_state &= ~RCC_CR_HSIOUTEN;
 80016b8:	6a7b      	ldr	r3, [r7, #36]	@ 0x24
 80016ba:	2220      	movs	r2, #32
 80016bc:	4393      	bics	r3, r2
 80016be:	627b      	str	r3, [r7, #36]	@ 0x24
    }
#endif

    /* Check if HSI is used as system clock or as PLL source when PLL is selected as system clock */
    if((sysclk_source == RCC_SYSCLKSOURCE_STATUS_HSI)
 80016c0:	69fb      	ldr	r3, [r7, #28]
 80016c2:	2b04      	cmp	r3, #4
 80016c4:	d005      	beq.n	80016d2 <HAL_RCC_OscConfig+0x172>
       || ((sysclk_source == RCC_SYSCLKSOURCE_STATUS_PLLCLK) && (pll_config == RCC_PLLSOURCE_HSI)))
 80016c6:	69fb      	ldr	r3, [r7, #28]
 80016c8:	2b0c      	cmp	r3, #12
 80016ca:	d13e      	bne.n	800174a <HAL_RCC_OscConfig+0x1ea>
 80016cc:	69bb      	ldr	r3, [r7, #24]
 80016ce:	2b00      	cmp	r3, #0
 80016d0:	d13b      	bne.n	800174a <HAL_RCC_OscConfig+0x1ea>
    {
      /* When HSI is used as system clock it will not disabled */
      if((__HAL_RCC_GET_FLAG(RCC_FLAG_HSIRDY) != 0U) && (hsi_state == RCC_HSI_OFF))
 80016d2:	4b71      	ldr	r3, [pc, #452]	@ (8001898 <HAL_RCC_OscConfig+0x338>)
 80016d4:	681b      	ldr	r3, [r3, #0]
 80016d6:	2204      	movs	r2, #4
 80016d8:	4013      	ands	r3, r2
 80016da:	d004      	beq.n	80016e6 <HAL_RCC_OscConfig+0x186>
 80016dc:	6a7b      	ldr	r3, [r7, #36]	@ 0x24
 80016de:	2b00      	cmp	r3, #0
 80016e0:	d101      	bne.n	80016e6 <HAL_RCC_OscConfig+0x186>
      {
        return HAL_ERROR;
 80016e2:	2301      	movs	r3, #1
 80016e4:	e2b2      	b.n	8001c4c <HAL_RCC_OscConfig+0x6ec>
      }
      /* Otherwise, just the calibration and HSI or HSIdiv4 are allowed */
      else
      {
        /* Adjusts the Internal High Speed oscillator (HSI) calibration value.*/
        __HAL_RCC_HSI_CALIBRATIONVALUE_ADJUST(RCC_OscInitStruct->HSICalibrationValue);
 80016e6:	4b6c      	ldr	r3, [pc, #432]	@ (8001898 <HAL_RCC_OscConfig+0x338>)
 80016e8:	685b      	ldr	r3, [r3, #4]
 80016ea:	4a6e      	ldr	r2, [pc, #440]	@ (80018a4 <HAL_RCC_OscConfig+0x344>)
 80016ec:	4013      	ands	r3, r2
 80016ee:	0019      	movs	r1, r3
 80016f0:	687b      	ldr	r3, [r7, #4]
 80016f2:	691b      	ldr	r3, [r3, #16]
 80016f4:	021a      	lsls	r2, r3, #8
 80016f6:	4b68      	ldr	r3, [pc, #416]	@ (8001898 <HAL_RCC_OscConfig+0x338>)
 80016f8:	430a      	orrs	r2, r1
 80016fa:	605a      	str	r2, [r3, #4]

        /* Enable the Internal High Speed oscillator (HSI or HSIdiv4) */
        __HAL_RCC_HSI_CONFIG(hsi_state);
 80016fc:	4b66      	ldr	r3, [pc, #408]	@ (8001898 <HAL_RCC_OscConfig+0x338>)
 80016fe:	681b      	ldr	r3, [r3, #0]
 8001700:	2209      	movs	r2, #9
 8001702:	4393      	bics	r3, r2
 8001704:	0019      	movs	r1, r3
 8001706:	4b64      	ldr	r3, [pc, #400]	@ (8001898 <HAL_RCC_OscConfig+0x338>)
 8001708:	6a7a      	ldr	r2, [r7, #36]	@ 0x24
 800170a:	430a      	orrs	r2, r1
 800170c:	601a      	str	r2, [r3, #0]
      }

      /* Update the SystemCoreClock global variable */
      SystemCoreClock = HAL_RCC_GetSysClockFreq() >> AHBPrescTable[(RCC->CFGR & RCC_CFGR_HPRE)>> RCC_CFGR_HPRE_Pos];
 800170e:	f000 fbeb 	bl	8001ee8 <HAL_RCC_GetSysClockFreq>
 8001712:	0001      	movs	r1, r0
 8001714:	4b60      	ldr	r3, [pc, #384]	@ (8001898 <HAL_RCC_OscConfig+0x338>)
 8001716:	68db      	ldr	r3, [r3, #12]
 8001718:	091b      	lsrs	r3, r3, #4
 800171a:	220f      	movs	r2, #15
 800171c:	4013      	ands	r3, r2
 800171e:	4a62      	ldr	r2, [pc, #392]	@ (80018a8 <HAL_RCC_OscConfig+0x348>)
 8001720:	5cd3      	ldrb	r3, [r2, r3]
 8001722:	000a      	movs	r2, r1
 8001724:	40da      	lsrs	r2, r3
 8001726:	4b61      	ldr	r3, [pc, #388]	@ (80018ac <HAL_RCC_OscConfig+0x34c>)
 8001728:	601a      	str	r2, [r3, #0]

      /* Configure the source of time base considering new system clocks settings*/
      status = HAL_InitTick (uwTickPrio);
 800172a:	4b61      	ldr	r3, [pc, #388]	@ (80018b0 <HAL_RCC_OscConfig+0x350>)
 800172c:	681b      	ldr	r3, [r3, #0]
 800172e:	2513      	movs	r5, #19
 8001730:	197c      	adds	r4, r7, r5
 8001732:	0018      	movs	r0, r3
 8001734:	f7fe ff74 	bl	8000620 <HAL_InitTick>
 8001738:	0003      	movs	r3, r0
 800173a:	7023      	strb	r3, [r4, #0]
      if(status != HAL_OK)
 800173c:	197b      	adds	r3, r7, r5
 800173e:	781b      	ldrb	r3, [r3, #0]
 8001740:	2b00      	cmp	r3, #0
 8001742:	d046      	beq.n	80017d2 <HAL_RCC_OscConfig+0x272>
      {
        return status;
 8001744:	197b      	adds	r3, r7, r5
 8001746:	781b      	ldrb	r3, [r3, #0]
 8001748:	e280      	b.n	8001c4c <HAL_RCC_OscConfig+0x6ec>
      }
    }
    else
    {
      /* Check the HSI State */
      if(hsi_state != RCC_HSI_OFF)
 800174a:	6a7b      	ldr	r3, [r7, #36]	@ 0x24
 800174c:	2b00      	cmp	r3, #0
 800174e:	d027      	beq.n	80017a0 <HAL_RCC_OscConfig+0x240>
      {
        /* Enable the Internal High Speed oscillator (HSI or HSIdiv4) */
        __HAL_RCC_HSI_CONFIG(hsi_state);
 8001750:	4b51      	ldr	r3, [pc, #324]	@ (8001898 <HAL_RCC_OscConfig+0x338>)
 8001752:	681b      	ldr	r3, [r3, #0]
 8001754:	2209      	movs	r2, #9
 8001756:	4393      	bics	r3, r2
 8001758:	0019      	movs	r1, r3
 800175a:	4b4f      	ldr	r3, [pc, #316]	@ (8001898 <HAL_RCC_OscConfig+0x338>)
 800175c:	6a7a      	ldr	r2, [r7, #36]	@ 0x24
 800175e:	430a      	orrs	r2, r1
 8001760:	601a      	str	r2, [r3, #0]

        /* Get Start Tick */
        tickstart = HAL_GetTick();
 8001762:	f7fe ffa3 	bl	80006ac <HAL_GetTick>
 8001766:	0003      	movs	r3, r0
 8001768:	617b      	str	r3, [r7, #20]

        /* Wait till HSI is ready */
        while(__HAL_RCC_GET_FLAG(RCC_FLAG_HSIRDY) == 0U)
 800176a:	e008      	b.n	800177e <HAL_RCC_OscConfig+0x21e>
        {
          if((HAL_GetTick() - tickstart ) > HSI_TIMEOUT_VALUE)
 800176c:	f7fe ff9e 	bl	80006ac <HAL_GetTick>
 8001770:	0002      	movs	r2, r0
 8001772:	697b      	ldr	r3, [r7, #20]
 8001774:	1ad3      	subs	r3, r2, r3
 8001776:	2b02      	cmp	r3, #2
 8001778:	d901      	bls.n	800177e <HAL_RCC_OscConfig+0x21e>
          {
            return HAL_TIMEOUT;
 800177a:	2303      	movs	r3, #3
 800177c:	e266      	b.n	8001c4c <HAL_RCC_OscConfig+0x6ec>
        while(__HAL_RCC_GET_FLAG(RCC_FLAG_HSIRDY) == 0U)
 800177e:	4b46      	ldr	r3, [pc, #280]	@ (8001898 <HAL_RCC_OscConfig+0x338>)
 8001780:	681b      	ldr	r3, [r3, #0]
 8001782:	2204      	movs	r2, #4
 8001784:	4013      	ands	r3, r2
 8001786:	d0f1      	beq.n	800176c <HAL_RCC_OscConfig+0x20c>
          }
        }

        /* Adjusts the Internal High Speed oscillator (HSI) calibration value.*/
        __HAL_RCC_HSI_CALIBRATIONVALUE_ADJUST(RCC_OscInitStruct->HSICalibrationValue);
 8001788:	4b43      	ldr	r3, [pc, #268]	@ (8001898 <HAL_RCC_OscConfig+0x338>)
 800178a:	685b      	ldr	r3, [r3, #4]
 800178c:	4a45      	ldr	r2, [pc, #276]	@ (80018a4 <HAL_RCC_OscConfig+0x344>)
 800178e:	4013      	ands	r3, r2
 8001790:	0019      	movs	r1, r3
 8001792:	687b      	ldr	r3, [r7, #4]
 8001794:	691b      	ldr	r3, [r3, #16]
 8001796:	021a      	lsls	r2, r3, #8
 8001798:	4b3f      	ldr	r3, [pc, #252]	@ (8001898 <HAL_RCC_OscConfig+0x338>)
 800179a:	430a      	orrs	r2, r1
 800179c:	605a      	str	r2, [r3, #4]
 800179e:	e018      	b.n	80017d2 <HAL_RCC_OscConfig+0x272>
      }
      else
      {
        /* Disable the Internal High Speed oscillator (HSI). */
        __HAL_RCC_HSI_DISABLE();
 80017a0:	4b3d      	ldr	r3, [pc, #244]	@ (8001898 <HAL_RCC_OscConfig+0x338>)
 80017a2:	681a      	ldr	r2, [r3, #0]
 80017a4:	4b3c      	ldr	r3, [pc, #240]	@ (8001898 <HAL_RCC_OscConfig+0x338>)
 80017a6:	2101      	movs	r1, #1
 80017a8:	438a      	bics	r2, r1
 80017aa:	601a      	str	r2, [r3, #0]

        /* Get Start Tick */
        tickstart = HAL_GetTick();
 80017ac:	f7fe ff7e 	bl	80006ac <HAL_GetTick>
 80017b0:	0003      	movs	r3, r0
 80017b2:	617b      	str	r3, [r7, #20]

        /* Wait till HSI is disabled */
        while(__HAL_RCC_GET_FLAG(RCC_FLAG_HSIRDY) != 0U)
 80017b4:	e008      	b.n	80017c8 <HAL_RCC_OscConfig+0x268>
        {
          if((HAL_GetTick() - tickstart ) > HSI_TIMEOUT_VALUE)
 80017b6:	f7fe ff79 	bl	80006ac <HAL_GetTick>
 80017ba:	0002      	movs	r2, r0
 80017bc:	697b      	ldr	r3, [r7, #20]
 80017be:	1ad3      	subs	r3, r2, r3
 80017c0:	2b02      	cmp	r3, #2
 80017c2:	d901      	bls.n	80017c8 <HAL_RCC_OscConfig+0x268>
          {
            return HAL_TIMEOUT;
 80017c4:	2303      	movs	r3, #3
 80017c6:	e241      	b.n	8001c4c <HAL_RCC_OscConfig+0x6ec>
        while(__HAL_RCC_GET_FLAG(RCC_FLAG_HSIRDY) != 0U)
 80017c8:	4b33      	ldr	r3, [pc, #204]	@ (8001898 <HAL_RCC_OscConfig+0x338>)
 80017ca:	681b      	ldr	r3, [r3, #0]
 80017cc:	2204      	movs	r2, #4
 80017ce:	4013      	ands	r3, r2
 80017d0:	d1f1      	bne.n	80017b6 <HAL_RCC_OscConfig+0x256>
        }
      }
    }
  }
  /*----------------------------- MSI Configuration --------------------------*/
  if(((RCC_OscInitStruct->OscillatorType) & RCC_OSCILLATORTYPE_MSI) == RCC_OSCILLATORTYPE_MSI)
 80017d2:	687b      	ldr	r3, [r7, #4]
 80017d4:	681b      	ldr	r3, [r3, #0]
 80017d6:	2210      	movs	r2, #16
 80017d8:	4013      	ands	r3, r2
 80017da:	d100      	bne.n	80017de <HAL_RCC_OscConfig+0x27e>
 80017dc:	e0a1      	b.n	8001922 <HAL_RCC_OscConfig+0x3c2>
  {
    /* When the MSI is used as system clock it will not be disabled */
    if(sysclk_source == RCC_CFGR_SWS_MSI)
 80017de:	69fb      	ldr	r3, [r7, #28]
 80017e0:	2b00      	cmp	r3, #0
 80017e2:	d140      	bne.n	8001866 <HAL_RCC_OscConfig+0x306>
    {
      if((__HAL_RCC_GET_FLAG(RCC_FLAG_MSIRDY) != 0U) && (RCC_OscInitStruct->MSIState == RCC_MSI_OFF))
 80017e4:	4b2c      	ldr	r3, [pc, #176]	@ (8001898 <HAL_RCC_OscConfig+0x338>)
 80017e6:	681a      	ldr	r2, [r3, #0]
 80017e8:	2380      	movs	r3, #128	@ 0x80
 80017ea:	009b      	lsls	r3, r3, #2
 80017ec:	4013      	ands	r3, r2
 80017ee:	d005      	beq.n	80017fc <HAL_RCC_OscConfig+0x29c>
 80017f0:	687b      	ldr	r3, [r7, #4]
 80017f2:	699b      	ldr	r3, [r3, #24]
 80017f4:	2b00      	cmp	r3, #0
 80017f6:	d101      	bne.n	80017fc <HAL_RCC_OscConfig+0x29c>
      {
        return HAL_ERROR;
 80017f8:	2301      	movs	r3, #1
 80017fa:	e227      	b.n	8001c4c <HAL_RCC_OscConfig+0x6ec>
        /* Check MSICalibrationValue and MSIClockRange input parameters */
        assert_param(IS_RCC_MSICALIBRATION_VALUE(RCC_OscInitStruct->MSICalibrationValue));
        assert_param(IS_RCC_MSI_CLOCK_RANGE(RCC_OscInitStruct->MSIClockRange));

        /* Selects the Multiple Speed oscillator (MSI) clock range .*/
        __HAL_RCC_MSI_RANGE_CONFIG(RCC_OscInitStruct->MSIClockRange);
 80017fc:	4b26      	ldr	r3, [pc, #152]	@ (8001898 <HAL_RCC_OscConfig+0x338>)
 80017fe:	685b      	ldr	r3, [r3, #4]
 8001800:	4a2c      	ldr	r2, [pc, #176]	@ (80018b4 <HAL_RCC_OscConfig+0x354>)
 8001802:	4013      	ands	r3, r2
 8001804:	0019      	movs	r1, r3
 8001806:	687b      	ldr	r3, [r7, #4]
 8001808:	6a1a      	ldr	r2, [r3, #32]
 800180a:	4b23      	ldr	r3, [pc, #140]	@ (8001898 <HAL_RCC_OscConfig+0x338>)
 800180c:	430a      	orrs	r2, r1
 800180e:	605a      	str	r2, [r3, #4]
        /* Adjusts the Multiple Speed oscillator (MSI) calibration value.*/
        __HAL_RCC_MSI_CALIBRATIONVALUE_ADJUST(RCC_OscInitStruct->MSICalibrationValue);
 8001810:	4b21      	ldr	r3, [pc, #132]	@ (8001898 <HAL_RCC_OscConfig+0x338>)
 8001812:	685b      	ldr	r3, [r3, #4]
 8001814:	021b      	lsls	r3, r3, #8
 8001816:	0a19      	lsrs	r1, r3, #8
 8001818:	687b      	ldr	r3, [r7, #4]
 800181a:	69db      	ldr	r3, [r3, #28]
 800181c:	061a      	lsls	r2, r3, #24
 800181e:	4b1e      	ldr	r3, [pc, #120]	@ (8001898 <HAL_RCC_OscConfig+0x338>)
 8001820:	430a      	orrs	r2, r1
 8001822:	605a      	str	r2, [r3, #4]


        /* Update the SystemCoreClock global variable */
        SystemCoreClock =  (32768U * (1UL << ((RCC_OscInitStruct->MSIClockRange >> RCC_ICSCR_MSIRANGE_Pos) + 1U)))
 8001824:	687b      	ldr	r3, [r7, #4]
 8001826:	6a1b      	ldr	r3, [r3, #32]
 8001828:	0b5b      	lsrs	r3, r3, #13
 800182a:	3301      	adds	r3, #1
 800182c:	2280      	movs	r2, #128	@ 0x80
 800182e:	0212      	lsls	r2, r2, #8
 8001830:	409a      	lsls	r2, r3
                           >> AHBPrescTable[((RCC->CFGR & RCC_CFGR_HPRE) >> RCC_CFGR_HPRE_Pos)];
 8001832:	4b19      	ldr	r3, [pc, #100]	@ (8001898 <HAL_RCC_OscConfig+0x338>)
 8001834:	68db      	ldr	r3, [r3, #12]
 8001836:	091b      	lsrs	r3, r3, #4
 8001838:	210f      	movs	r1, #15
 800183a:	400b      	ands	r3, r1
 800183c:	491a      	ldr	r1, [pc, #104]	@ (80018a8 <HAL_RCC_OscConfig+0x348>)
 800183e:	5ccb      	ldrb	r3, [r1, r3]
 8001840:	40da      	lsrs	r2, r3
        SystemCoreClock =  (32768U * (1UL << ((RCC_OscInitStruct->MSIClockRange >> RCC_ICSCR_MSIRANGE_Pos) + 1U)))
 8001842:	4b1a      	ldr	r3, [pc, #104]	@ (80018ac <HAL_RCC_OscConfig+0x34c>)
 8001844:	601a      	str	r2, [r3, #0]

        /* Configure the source of time base considering new system clocks settings*/
        status = HAL_InitTick (uwTickPrio);
 8001846:	4b1a      	ldr	r3, [pc, #104]	@ (80018b0 <HAL_RCC_OscConfig+0x350>)
 8001848:	681b      	ldr	r3, [r3, #0]
 800184a:	2513      	movs	r5, #19
 800184c:	197c      	adds	r4, r7, r5
 800184e:	0018      	movs	r0, r3
 8001850:	f7fe fee6 	bl	8000620 <HAL_InitTick>
 8001854:	0003      	movs	r3, r0
 8001856:	7023      	strb	r3, [r4, #0]
        if(status != HAL_OK)
 8001858:	197b      	adds	r3, r7, r5
 800185a:	781b      	ldrb	r3, [r3, #0]
 800185c:	2b00      	cmp	r3, #0
 800185e:	d060      	beq.n	8001922 <HAL_RCC_OscConfig+0x3c2>
        {
          return status;
 8001860:	197b      	adds	r3, r7, r5
 8001862:	781b      	ldrb	r3, [r3, #0]
 8001864:	e1f2      	b.n	8001c4c <HAL_RCC_OscConfig+0x6ec>
    {
      /* Check MSI State */
      assert_param(IS_RCC_MSI(RCC_OscInitStruct->MSIState));

      /* Check the MSI State */
      if(RCC_OscInitStruct->MSIState != RCC_MSI_OFF)
 8001866:	687b      	ldr	r3, [r7, #4]
 8001868:	699b      	ldr	r3, [r3, #24]
 800186a:	2b00      	cmp	r3, #0
 800186c:	d03f      	beq.n	80018ee <HAL_RCC_OscConfig+0x38e>
      {
        /* Enable the Multi Speed oscillator (MSI). */
        __HAL_RCC_MSI_ENABLE();
 800186e:	4b0a      	ldr	r3, [pc, #40]	@ (8001898 <HAL_RCC_OscConfig+0x338>)
 8001870:	681a      	ldr	r2, [r3, #0]
 8001872:	4b09      	ldr	r3, [pc, #36]	@ (8001898 <HAL_RCC_OscConfig+0x338>)
 8001874:	2180      	movs	r1, #128	@ 0x80
 8001876:	0049      	lsls	r1, r1, #1
 8001878:	430a      	orrs	r2, r1
 800187a:	601a      	str	r2, [r3, #0]

        /* Get Start Tick */
        tickstart = HAL_GetTick();
 800187c:	f7fe ff16 	bl	80006ac <HAL_GetTick>
 8001880:	0003      	movs	r3, r0
 8001882:	617b      	str	r3, [r7, #20]

        /* Wait till MSI is ready */
        while(__HAL_RCC_GET_FLAG(RCC_FLAG_MSIRDY) == 0U)
 8001884:	e018      	b.n	80018b8 <HAL_RCC_OscConfig+0x358>
        {
          if((HAL_GetTick() - tickstart) > MSI_TIMEOUT_VALUE)
 8001886:	f7fe ff11 	bl	80006ac <HAL_GetTick>
 800188a:	0002      	movs	r2, r0
 800188c:	697b      	ldr	r3, [r7, #20]
 800188e:	1ad3      	subs	r3, r2, r3
 8001890:	2b02      	cmp	r3, #2
 8001892:	d911      	bls.n	80018b8 <HAL_RCC_OscConfig+0x358>
          {
            return HAL_TIMEOUT;
 8001894:	2303      	movs	r3, #3
 8001896:	e1d9      	b.n	8001c4c <HAL_RCC_OscConfig+0x6ec>
 8001898:	40021000 	.word	0x40021000
 800189c:	fffeffff 	.word	0xfffeffff
 80018a0:	fffbffff 	.word	0xfffbffff
 80018a4:	ffffe0ff 	.word	0xffffe0ff
 80018a8:	08002064 	.word	0x08002064
 80018ac:	20000000 	.word	0x20000000
 80018b0:	20000004 	.word	0x20000004
 80018b4:	ffff1fff 	.word	0xffff1fff
        while(__HAL_RCC_GET_FLAG(RCC_FLAG_MSIRDY) == 0U)
 80018b8:	4bc9      	ldr	r3, [pc, #804]	@ (8001be0 <HAL_RCC_OscConfig+0x680>)
 80018ba:	681a      	ldr	r2, [r3, #0]
 80018bc:	2380      	movs	r3, #128	@ 0x80
 80018be:	009b      	lsls	r3, r3, #2
 80018c0:	4013      	ands	r3, r2
 80018c2:	d0e0      	beq.n	8001886 <HAL_RCC_OscConfig+0x326>
        /* Check MSICalibrationValue and MSIClockRange input parameters */
        assert_param(IS_RCC_MSICALIBRATION_VALUE(RCC_OscInitStruct->MSICalibrationValue));
        assert_param(IS_RCC_MSI_CLOCK_RANGE(RCC_OscInitStruct->MSIClockRange));

        /* Selects the Multiple Speed oscillator (MSI) clock range .*/
        __HAL_RCC_MSI_RANGE_CONFIG(RCC_OscInitStruct->MSIClockRange);
 80018c4:	4bc6      	ldr	r3, [pc, #792]	@ (8001be0 <HAL_RCC_OscConfig+0x680>)
 80018c6:	685b      	ldr	r3, [r3, #4]
 80018c8:	4ac6      	ldr	r2, [pc, #792]	@ (8001be4 <HAL_RCC_OscConfig+0x684>)
 80018ca:	4013      	ands	r3, r2
 80018cc:	0019      	movs	r1, r3
 80018ce:	687b      	ldr	r3, [r7, #4]
 80018d0:	6a1a      	ldr	r2, [r3, #32]
 80018d2:	4bc3      	ldr	r3, [pc, #780]	@ (8001be0 <HAL_RCC_OscConfig+0x680>)
 80018d4:	430a      	orrs	r2, r1
 80018d6:	605a      	str	r2, [r3, #4]
         /* Adjusts the Multiple Speed oscillator (MSI) calibration value.*/
        __HAL_RCC_MSI_CALIBRATIONVALUE_ADJUST(RCC_OscInitStruct->MSICalibrationValue);
 80018d8:	4bc1      	ldr	r3, [pc, #772]	@ (8001be0 <HAL_RCC_OscConfig+0x680>)
 80018da:	685b      	ldr	r3, [r3, #4]
 80018dc:	021b      	lsls	r3, r3, #8
 80018de:	0a19      	lsrs	r1, r3, #8
 80018e0:	687b      	ldr	r3, [r7, #4]
 80018e2:	69db      	ldr	r3, [r3, #28]
 80018e4:	061a      	lsls	r2, r3, #24
 80018e6:	4bbe      	ldr	r3, [pc, #760]	@ (8001be0 <HAL_RCC_OscConfig+0x680>)
 80018e8:	430a      	orrs	r2, r1
 80018ea:	605a      	str	r2, [r3, #4]
 80018ec:	e019      	b.n	8001922 <HAL_RCC_OscConfig+0x3c2>
      }
      else
      {
        /* Disable the Multi Speed oscillator (MSI). */
        __HAL_RCC_MSI_DISABLE();
 80018ee:	4bbc      	ldr	r3, [pc, #752]	@ (8001be0 <HAL_RCC_OscConfig+0x680>)
 80018f0:	681a      	ldr	r2, [r3, #0]
 80018f2:	4bbb      	ldr	r3, [pc, #748]	@ (8001be0 <HAL_RCC_OscConfig+0x680>)
 80018f4:	49bc      	ldr	r1, [pc, #752]	@ (8001be8 <HAL_RCC_OscConfig+0x688>)
 80018f6:	400a      	ands	r2, r1
 80018f8:	601a      	str	r2, [r3, #0]

        /* Get Start Tick */
        tickstart = HAL_GetTick();
 80018fa:	f7fe fed7 	bl	80006ac <HAL_GetTick>
 80018fe:	0003      	movs	r3, r0
 8001900:	617b      	str	r3, [r7, #20]

        /* Wait till MSI is ready */
        while(__HAL_RCC_GET_FLAG(RCC_FLAG_MSIRDY) != 0U)
 8001902:	e008      	b.n	8001916 <HAL_RCC_OscConfig+0x3b6>
        {
          if((HAL_GetTick() - tickstart) > MSI_TIMEOUT_VALUE)
 8001904:	f7fe fed2 	bl	80006ac <HAL_GetTick>
 8001908:	0002      	movs	r2, r0
 800190a:	697b      	ldr	r3, [r7, #20]
 800190c:	1ad3      	subs	r3, r2, r3
 800190e:	2b02      	cmp	r3, #2
 8001910:	d901      	bls.n	8001916 <HAL_RCC_OscConfig+0x3b6>
          {
            return HAL_TIMEOUT;
 8001912:	2303      	movs	r3, #3
 8001914:	e19a      	b.n	8001c4c <HAL_RCC_OscConfig+0x6ec>
        while(__HAL_RCC_GET_FLAG(RCC_FLAG_MSIRDY) != 0U)
 8001916:	4bb2      	ldr	r3, [pc, #712]	@ (8001be0 <HAL_RCC_OscConfig+0x680>)
 8001918:	681a      	ldr	r2, [r3, #0]
 800191a:	2380      	movs	r3, #128	@ 0x80
 800191c:	009b      	lsls	r3, r3, #2
 800191e:	4013      	ands	r3, r2
 8001920:	d1f0      	bne.n	8001904 <HAL_RCC_OscConfig+0x3a4>
        }
      }
    }
  }
  /*------------------------------ LSI Configuration -------------------------*/
  if(((RCC_OscInitStruct->OscillatorType) & RCC_OSCILLATORTYPE_LSI) == RCC_OSCILLATORTYPE_LSI)
 8001922:	687b      	ldr	r3, [r7, #4]
 8001924:	681b      	ldr	r3, [r3, #0]
 8001926:	2208      	movs	r2, #8
 8001928:	4013      	ands	r3, r2
 800192a:	d036      	beq.n	800199a <HAL_RCC_OscConfig+0x43a>
  {
    /* Check the parameters */
    assert_param(IS_RCC_LSI(RCC_OscInitStruct->LSIState));

    /* Check the LSI State */
    if(RCC_OscInitStruct->LSIState != RCC_LSI_OFF)
 800192c:	687b      	ldr	r3, [r7, #4]
 800192e:	695b      	ldr	r3, [r3, #20]
 8001930:	2b00      	cmp	r3, #0
 8001932:	d019      	beq.n	8001968 <HAL_RCC_OscConfig+0x408>
    {
      /* Enable the Internal Low Speed oscillator (LSI). */
      __HAL_RCC_LSI_ENABLE();
 8001934:	4baa      	ldr	r3, [pc, #680]	@ (8001be0 <HAL_RCC_OscConfig+0x680>)
 8001936:	6d1a      	ldr	r2, [r3, #80]	@ 0x50
 8001938:	4ba9      	ldr	r3, [pc, #676]	@ (8001be0 <HAL_RCC_OscConfig+0x680>)
 800193a:	2101      	movs	r1, #1
 800193c:	430a      	orrs	r2, r1
 800193e:	651a      	str	r2, [r3, #80]	@ 0x50

      /* Get Start Tick */
      tickstart = HAL_GetTick();
 8001940:	f7fe feb4 	bl	80006ac <HAL_GetTick>
 8001944:	0003      	movs	r3, r0
 8001946:	617b      	str	r3, [r7, #20]

      /* Wait till LSI is ready */
      while(__HAL_RCC_GET_FLAG(RCC_FLAG_LSIRDY) == 0U)
 8001948:	e008      	b.n	800195c <HAL_RCC_OscConfig+0x3fc>
      {
        if((HAL_GetTick() - tickstart ) > LSI_TIMEOUT_VALUE)
 800194a:	f7fe feaf 	bl	80006ac <HAL_GetTick>
 800194e:	0002      	movs	r2, r0
 8001950:	697b      	ldr	r3, [r7, #20]
 8001952:	1ad3      	subs	r3, r2, r3
 8001954:	2b02      	cmp	r3, #2
 8001956:	d901      	bls.n	800195c <HAL_RCC_OscConfig+0x3fc>
        {
          return HAL_TIMEOUT;
 8001958:	2303      	movs	r3, #3
 800195a:	e177      	b.n	8001c4c <HAL_RCC_OscConfig+0x6ec>
      while(__HAL_RCC_GET_FLAG(RCC_FLAG_LSIRDY) == 0U)
 800195c:	4ba0      	ldr	r3, [pc, #640]	@ (8001be0 <HAL_RCC_OscConfig+0x680>)
 800195e:	6d1b      	ldr	r3, [r3, #80]	@ 0x50
 8001960:	2202      	movs	r2, #2
 8001962:	4013      	ands	r3, r2
 8001964:	d0f1      	beq.n	800194a <HAL_RCC_OscConfig+0x3ea>
 8001966:	e018      	b.n	800199a <HAL_RCC_OscConfig+0x43a>
      }
    }
    else
    {
      /* Disable the Internal Low Speed oscillator (LSI). */
      __HAL_RCC_LSI_DISABLE();
 8001968:	4b9d      	ldr	r3, [pc, #628]	@ (8001be0 <HAL_RCC_OscConfig+0x680>)
 800196a:	6d1a      	ldr	r2, [r3, #80]	@ 0x50
 800196c:	4b9c      	ldr	r3, [pc, #624]	@ (8001be0 <HAL_RCC_OscConfig+0x680>)
 800196e:	2101      	movs	r1, #1
 8001970:	438a      	bics	r2, r1
 8001972:	651a      	str	r2, [r3, #80]	@ 0x50

      /* Get Start Tick */
      tickstart = HAL_GetTick();
 8001974:	f7fe fe9a 	bl	80006ac <HAL_GetTick>
 8001978:	0003      	movs	r3, r0
 800197a:	617b      	str	r3, [r7, #20]

      /* Wait till LSI is disabled */
      while(__HAL_RCC_GET_FLAG(RCC_FLAG_LSIRDY) != 0U)
 800197c:	e008      	b.n	8001990 <HAL_RCC_OscConfig+0x430>
      {
        if((HAL_GetTick() - tickstart ) > LSI_TIMEOUT_VALUE)
 800197e:	f7fe fe95 	bl	80006ac <HAL_GetTick>
 8001982:	0002      	movs	r2, r0
 8001984:	697b      	ldr	r3, [r7, #20]
 8001986:	1ad3      	subs	r3, r2, r3
 8001988:	2b02      	cmp	r3, #2
 800198a:	d901      	bls.n	8001990 <HAL_RCC_OscConfig+0x430>
        {
          return HAL_TIMEOUT;
 800198c:	2303      	movs	r3, #3
 800198e:	e15d      	b.n	8001c4c <HAL_RCC_OscConfig+0x6ec>
      while(__HAL_RCC_GET_FLAG(RCC_FLAG_LSIRDY) != 0U)
 8001990:	4b93      	ldr	r3, [pc, #588]	@ (8001be0 <HAL_RCC_OscConfig+0x680>)
 8001992:	6d1b      	ldr	r3, [r3, #80]	@ 0x50
 8001994:	2202      	movs	r2, #2
 8001996:	4013      	ands	r3, r2
 8001998:	d1f1      	bne.n	800197e <HAL_RCC_OscConfig+0x41e>
        }
      }
    }
  }
  /*------------------------------ LSE Configuration -------------------------*/
  if(((RCC_OscInitStruct->OscillatorType) & RCC_OSCILLATORTYPE_LSE) == RCC_OSCILLATORTYPE_LSE)
 800199a:	687b      	ldr	r3, [r7, #4]
 800199c:	681b      	ldr	r3, [r3, #0]
 800199e:	2204      	movs	r2, #4
 80019a0:	4013      	ands	r3, r2
 80019a2:	d100      	bne.n	80019a6 <HAL_RCC_OscConfig+0x446>
 80019a4:	e0ae      	b.n	8001b04 <HAL_RCC_OscConfig+0x5a4>
  {
    FlagStatus       pwrclkchanged = RESET;
 80019a6:	2023      	movs	r0, #35	@ 0x23
 80019a8:	183b      	adds	r3, r7, r0
 80019aa:	2200      	movs	r2, #0
 80019ac:	701a      	strb	r2, [r3, #0]
    /* Check the parameters */
    assert_param(IS_RCC_LSE(RCC_OscInitStruct->LSEState));

    /* Update LSE configuration in Backup Domain control register    */
    /* Requires to enable write access to Backup Domain of necessary */
    if(__HAL_RCC_PWR_IS_CLK_DISABLED())
 80019ae:	4b8c      	ldr	r3, [pc, #560]	@ (8001be0 <HAL_RCC_OscConfig+0x680>)
 80019b0:	6b9a      	ldr	r2, [r3, #56]	@ 0x38
 80019b2:	2380      	movs	r3, #128	@ 0x80
 80019b4:	055b      	lsls	r3, r3, #21
 80019b6:	4013      	ands	r3, r2
 80019b8:	d109      	bne.n	80019ce <HAL_RCC_OscConfig+0x46e>
    {
      __HAL_RCC_PWR_CLK_ENABLE();
 80019ba:	4b89      	ldr	r3, [pc, #548]	@ (8001be0 <HAL_RCC_OscConfig+0x680>)
 80019bc:	6b9a      	ldr	r2, [r3, #56]	@ 0x38
 80019be:	4b88      	ldr	r3, [pc, #544]	@ (8001be0 <HAL_RCC_OscConfig+0x680>)
 80019c0:	2180      	movs	r1, #128	@ 0x80
 80019c2:	0549      	lsls	r1, r1, #21
 80019c4:	430a      	orrs	r2, r1
 80019c6:	639a      	str	r2, [r3, #56]	@ 0x38
      pwrclkchanged = SET;
 80019c8:	183b      	adds	r3, r7, r0
 80019ca:	2201      	movs	r2, #1
 80019cc:	701a      	strb	r2, [r3, #0]
    }

    if(HAL_IS_BIT_CLR(PWR->CR, PWR_CR_DBP))
 80019ce:	4b87      	ldr	r3, [pc, #540]	@ (8001bec <HAL_RCC_OscConfig+0x68c>)
 80019d0:	681a      	ldr	r2, [r3, #0]
 80019d2:	2380      	movs	r3, #128	@ 0x80
 80019d4:	005b      	lsls	r3, r3, #1
 80019d6:	4013      	ands	r3, r2
 80019d8:	d11a      	bne.n	8001a10 <HAL_RCC_OscConfig+0x4b0>
    {
      /* Enable write access to Backup domain */
      SET_BIT(PWR->CR, PWR_CR_DBP);
 80019da:	4b84      	ldr	r3, [pc, #528]	@ (8001bec <HAL_RCC_OscConfig+0x68c>)
 80019dc:	681a      	ldr	r2, [r3, #0]
 80019de:	4b83      	ldr	r3, [pc, #524]	@ (8001bec <HAL_RCC_OscConfig+0x68c>)
 80019e0:	2180      	movs	r1, #128	@ 0x80
 80019e2:	0049      	lsls	r1, r1, #1
 80019e4:	430a      	orrs	r2, r1
 80019e6:	601a      	str	r2, [r3, #0]

      /* Wait for Backup domain Write protection disable */
      tickstart = HAL_GetTick();
 80019e8:	f7fe fe60 	bl	80006ac <HAL_GetTick>
 80019ec:	0003      	movs	r3, r0
 80019ee:	617b      	str	r3, [r7, #20]

      while(HAL_IS_BIT_CLR(PWR->CR, PWR_CR_DBP))
 80019f0:	e008      	b.n	8001a04 <HAL_RCC_OscConfig+0x4a4>
      {
        if((HAL_GetTick() - tickstart) > RCC_DBP_TIMEOUT_VALUE)
 80019f2:	f7fe fe5b 	bl	80006ac <HAL_GetTick>
 80019f6:	0002      	movs	r2, r0
 80019f8:	697b      	ldr	r3, [r7, #20]
 80019fa:	1ad3      	subs	r3, r2, r3
 80019fc:	2b64      	cmp	r3, #100	@ 0x64
 80019fe:	d901      	bls.n	8001a04 <HAL_RCC_OscConfig+0x4a4>
        {
          return HAL_TIMEOUT;
 8001a00:	2303      	movs	r3, #3
 8001a02:	e123      	b.n	8001c4c <HAL_RCC_OscConfig+0x6ec>
      while(HAL_IS_BIT_CLR(PWR->CR, PWR_CR_DBP))
 8001a04:	4b79      	ldr	r3, [pc, #484]	@ (8001bec <HAL_RCC_OscConfig+0x68c>)
 8001a06:	681a      	ldr	r2, [r3, #0]
 8001a08:	2380      	movs	r3, #128	@ 0x80
 8001a0a:	005b      	lsls	r3, r3, #1
 8001a0c:	4013      	ands	r3, r2
 8001a0e:	d0f0      	beq.n	80019f2 <HAL_RCC_OscConfig+0x492>
        }
      }
    }

    /* Set the new LSE configuration -----------------------------------------*/
    __HAL_RCC_LSE_CONFIG(RCC_OscInitStruct->LSEState);
 8001a10:	687b      	ldr	r3, [r7, #4]
 8001a12:	689a      	ldr	r2, [r3, #8]
 8001a14:	2380      	movs	r3, #128	@ 0x80
 8001a16:	005b      	lsls	r3, r3, #1
 8001a18:	429a      	cmp	r2, r3
 8001a1a:	d107      	bne.n	8001a2c <HAL_RCC_OscConfig+0x4cc>
 8001a1c:	4b70      	ldr	r3, [pc, #448]	@ (8001be0 <HAL_RCC_OscConfig+0x680>)
 8001a1e:	6d1a      	ldr	r2, [r3, #80]	@ 0x50
 8001a20:	4b6f      	ldr	r3, [pc, #444]	@ (8001be0 <HAL_RCC_OscConfig+0x680>)
 8001a22:	2180      	movs	r1, #128	@ 0x80
 8001a24:	0049      	lsls	r1, r1, #1
 8001a26:	430a      	orrs	r2, r1
 8001a28:	651a      	str	r2, [r3, #80]	@ 0x50
 8001a2a:	e031      	b.n	8001a90 <HAL_RCC_OscConfig+0x530>
 8001a2c:	687b      	ldr	r3, [r7, #4]
 8001a2e:	689b      	ldr	r3, [r3, #8]
 8001a30:	2b00      	cmp	r3, #0
 8001a32:	d10c      	bne.n	8001a4e <HAL_RCC_OscConfig+0x4ee>
 8001a34:	4b6a      	ldr	r3, [pc, #424]	@ (8001be0 <HAL_RCC_OscConfig+0x680>)
 8001a36:	6d1a      	ldr	r2, [r3, #80]	@ 0x50
 8001a38:	4b69      	ldr	r3, [pc, #420]	@ (8001be0 <HAL_RCC_OscConfig+0x680>)
 8001a3a:	496b      	ldr	r1, [pc, #428]	@ (8001be8 <HAL_RCC_OscConfig+0x688>)
 8001a3c:	400a      	ands	r2, r1
 8001a3e:	651a      	str	r2, [r3, #80]	@ 0x50
 8001a40:	4b67      	ldr	r3, [pc, #412]	@ (8001be0 <HAL_RCC_OscConfig+0x680>)
 8001a42:	6d1a      	ldr	r2, [r3, #80]	@ 0x50
 8001a44:	4b66      	ldr	r3, [pc, #408]	@ (8001be0 <HAL_RCC_OscConfig+0x680>)
 8001a46:	496a      	ldr	r1, [pc, #424]	@ (8001bf0 <HAL_RCC_OscConfig+0x690>)
 8001a48:	400a      	ands	r2, r1
 8001a4a:	651a      	str	r2, [r3, #80]	@ 0x50
 8001a4c:	e020      	b.n	8001a90 <HAL_RCC_OscConfig+0x530>
 8001a4e:	687b      	ldr	r3, [r7, #4]
 8001a50:	689a      	ldr	r2, [r3, #8]
 8001a52:	23a0      	movs	r3, #160	@ 0xa0
 8001a54:	00db      	lsls	r3, r3, #3
 8001a56:	429a      	cmp	r2, r3
 8001a58:	d10e      	bne.n	8001a78 <HAL_RCC_OscConfig+0x518>
 8001a5a:	4b61      	ldr	r3, [pc, #388]	@ (8001be0 <HAL_RCC_OscConfig+0x680>)
 8001a5c:	6d1a      	ldr	r2, [r3, #80]	@ 0x50
 8001a5e:	4b60      	ldr	r3, [pc, #384]	@ (8001be0 <HAL_RCC_OscConfig+0x680>)
 8001a60:	2180      	movs	r1, #128	@ 0x80
 8001a62:	00c9      	lsls	r1, r1, #3
 8001a64:	430a      	orrs	r2, r1
 8001a66:	651a      	str	r2, [r3, #80]	@ 0x50
 8001a68:	4b5d      	ldr	r3, [pc, #372]	@ (8001be0 <HAL_RCC_OscConfig+0x680>)
 8001a6a:	6d1a      	ldr	r2, [r3, #80]	@ 0x50
 8001a6c:	4b5c      	ldr	r3, [pc, #368]	@ (8001be0 <HAL_RCC_OscConfig+0x680>)
 8001a6e:	2180      	movs	r1, #128	@ 0x80
 8001a70:	0049      	lsls	r1, r1, #1
 8001a72:	430a      	orrs	r2, r1
 8001a74:	651a      	str	r2, [r3, #80]	@ 0x50
 8001a76:	e00b      	b.n	8001a90 <HAL_RCC_OscConfig+0x530>
 8001a78:	4b59      	ldr	r3, [pc, #356]	@ (8001be0 <HAL_RCC_OscConfig+0x680>)
 8001a7a:	6d1a      	ldr	r2, [r3, #80]	@ 0x50
 8001a7c:	4b58      	ldr	r3, [pc, #352]	@ (8001be0 <HAL_RCC_OscConfig+0x680>)
 8001a7e:	495a      	ldr	r1, [pc, #360]	@ (8001be8 <HAL_RCC_OscConfig+0x688>)
 8001a80:	400a      	ands	r2, r1
 8001a82:	651a      	str	r2, [r3, #80]	@ 0x50
 8001a84:	4b56      	ldr	r3, [pc, #344]	@ (8001be0 <HAL_RCC_OscConfig+0x680>)
 8001a86:	6d1a      	ldr	r2, [r3, #80]	@ 0x50
 8001a88:	4b55      	ldr	r3, [pc, #340]	@ (8001be0 <HAL_RCC_OscConfig+0x680>)
 8001a8a:	4959      	ldr	r1, [pc, #356]	@ (8001bf0 <HAL_RCC_OscConfig+0x690>)
 8001a8c:	400a      	ands	r2, r1
 8001a8e:	651a      	str	r2, [r3, #80]	@ 0x50

    /* Check the LSE State */
    if(RCC_OscInitStruct->LSEState != RCC_LSE_OFF)
 8001a90:	687b      	ldr	r3, [r7, #4]
 8001a92:	689b      	ldr	r3, [r3, #8]
 8001a94:	2b00      	cmp	r3, #0
 8001a96:	d015      	beq.n	8001ac4 <HAL_RCC_OscConfig+0x564>
    {
      /* Get Start Tick */
      tickstart = HAL_GetTick();
 8001a98:	f7fe fe08 	bl	80006ac <HAL_GetTick>
 8001a9c:	0003      	movs	r3, r0
 8001a9e:	617b      	str	r3, [r7, #20]

      /* Wait till LSE is ready */
      while(__HAL_RCC_GET_FLAG(RCC_FLAG_LSERDY) == 0U)
 8001aa0:	e009      	b.n	8001ab6 <HAL_RCC_OscConfig+0x556>
      {
        if((HAL_GetTick() - tickstart ) > RCC_LSE_TIMEOUT_VALUE)
 8001aa2:	f7fe fe03 	bl	80006ac <HAL_GetTick>
 8001aa6:	0002      	movs	r2, r0
 8001aa8:	697b      	ldr	r3, [r7, #20]
 8001aaa:	1ad3      	subs	r3, r2, r3
 8001aac:	4a51      	ldr	r2, [pc, #324]	@ (8001bf4 <HAL_RCC_OscConfig+0x694>)
 8001aae:	4293      	cmp	r3, r2
 8001ab0:	d901      	bls.n	8001ab6 <HAL_RCC_OscConfig+0x556>
        {
          return HAL_TIMEOUT;
 8001ab2:	2303      	movs	r3, #3
 8001ab4:	e0ca      	b.n	8001c4c <HAL_RCC_OscConfig+0x6ec>
      while(__HAL_RCC_GET_FLAG(RCC_FLAG_LSERDY) == 0U)
 8001ab6:	4b4a      	ldr	r3, [pc, #296]	@ (8001be0 <HAL_RCC_OscConfig+0x680>)
 8001ab8:	6d1a      	ldr	r2, [r3, #80]	@ 0x50
 8001aba:	2380      	movs	r3, #128	@ 0x80
 8001abc:	009b      	lsls	r3, r3, #2
 8001abe:	4013      	ands	r3, r2
 8001ac0:	d0ef      	beq.n	8001aa2 <HAL_RCC_OscConfig+0x542>
 8001ac2:	e014      	b.n	8001aee <HAL_RCC_OscConfig+0x58e>
      }
    }
    else
    {
      /* Get Start Tick */
      tickstart = HAL_GetTick();
 8001ac4:	f7fe fdf2 	bl	80006ac <HAL_GetTick>
 8001ac8:	0003      	movs	r3, r0
 8001aca:	617b      	str	r3, [r7, #20]

      /* Wait till LSE is disabled */
      while(__HAL_RCC_GET_FLAG(RCC_FLAG_LSERDY) != 0U)
 8001acc:	e009      	b.n	8001ae2 <HAL_RCC_OscConfig+0x582>
      {
        if((HAL_GetTick() - tickstart ) > RCC_LSE_TIMEOUT_VALUE)
 8001ace:	f7fe fded 	bl	80006ac <HAL_GetTick>
 8001ad2:	0002      	movs	r2, r0
 8001ad4:	697b      	ldr	r3, [r7, #20]
 8001ad6:	1ad3      	subs	r3, r2, r3
 8001ad8:	4a46      	ldr	r2, [pc, #280]	@ (8001bf4 <HAL_RCC_OscConfig+0x694>)
 8001ada:	4293      	cmp	r3, r2
 8001adc:	d901      	bls.n	8001ae2 <HAL_RCC_OscConfig+0x582>
        {
          return HAL_TIMEOUT;
 8001ade:	2303      	movs	r3, #3
 8001ae0:	e0b4      	b.n	8001c4c <HAL_RCC_OscConfig+0x6ec>
      while(__HAL_RCC_GET_FLAG(RCC_FLAG_LSERDY) != 0U)
 8001ae2:	4b3f      	ldr	r3, [pc, #252]	@ (8001be0 <HAL_RCC_OscConfig+0x680>)
 8001ae4:	6d1a      	ldr	r2, [r3, #80]	@ 0x50
 8001ae6:	2380      	movs	r3, #128	@ 0x80
 8001ae8:	009b      	lsls	r3, r3, #2
 8001aea:	4013      	ands	r3, r2
 8001aec:	d1ef      	bne.n	8001ace <HAL_RCC_OscConfig+0x56e>
        }
      }
    }

    /* Require to disable power clock if necessary */
    if(pwrclkchanged == SET)
 8001aee:	2323      	movs	r3, #35	@ 0x23
 8001af0:	18fb      	adds	r3, r7, r3
 8001af2:	781b      	ldrb	r3, [r3, #0]
 8001af4:	2b01      	cmp	r3, #1
 8001af6:	d105      	bne.n	8001b04 <HAL_RCC_OscConfig+0x5a4>
    {
      __HAL_RCC_PWR_CLK_DISABLE();
 8001af8:	4b39      	ldr	r3, [pc, #228]	@ (8001be0 <HAL_RCC_OscConfig+0x680>)
 8001afa:	6b9a      	ldr	r2, [r3, #56]	@ 0x38
 8001afc:	4b38      	ldr	r3, [pc, #224]	@ (8001be0 <HAL_RCC_OscConfig+0x680>)
 8001afe:	493e      	ldr	r1, [pc, #248]	@ (8001bf8 <HAL_RCC_OscConfig+0x698>)
 8001b00:	400a      	ands	r2, r1
 8001b02:	639a      	str	r2, [r3, #56]	@ 0x38
#endif /* RCC_HSI48_SUPPORT */

  /*-------------------------------- PLL Configuration -----------------------*/
  /* Check the parameters */
  assert_param(IS_RCC_PLL(RCC_OscInitStruct->PLL.PLLState));
  if ((RCC_OscInitStruct->PLL.PLLState) != RCC_PLL_NONE)
 8001b04:	687b      	ldr	r3, [r7, #4]
 8001b06:	6a5b      	ldr	r3, [r3, #36]	@ 0x24
 8001b08:	2b00      	cmp	r3, #0
 8001b0a:	d100      	bne.n	8001b0e <HAL_RCC_OscConfig+0x5ae>
 8001b0c:	e09d      	b.n	8001c4a <HAL_RCC_OscConfig+0x6ea>
  {
    /* Check if the PLL is used as system clock or not */
    if(sysclk_source != RCC_SYSCLKSOURCE_STATUS_PLLCLK)
 8001b0e:	69fb      	ldr	r3, [r7, #28]
 8001b10:	2b0c      	cmp	r3, #12
 8001b12:	d100      	bne.n	8001b16 <HAL_RCC_OscConfig+0x5b6>
 8001b14:	e076      	b.n	8001c04 <HAL_RCC_OscConfig+0x6a4>
    {
      if((RCC_OscInitStruct->PLL.PLLState) == RCC_PLL_ON)
 8001b16:	687b      	ldr	r3, [r7, #4]
 8001b18:	6a5b      	ldr	r3, [r3, #36]	@ 0x24
 8001b1a:	2b02      	cmp	r3, #2
 8001b1c:	d145      	bne.n	8001baa <HAL_RCC_OscConfig+0x64a>
        assert_param(IS_RCC_PLLSOURCE(RCC_OscInitStruct->PLL.PLLSource));
        assert_param(IS_RCC_PLL_MUL(RCC_OscInitStruct->PLL.PLLMUL));
        assert_param(IS_RCC_PLL_DIV(RCC_OscInitStruct->PLL.PLLDIV));

        /* Disable the main PLL. */
        __HAL_RCC_PLL_DISABLE();
 8001b1e:	4b30      	ldr	r3, [pc, #192]	@ (8001be0 <HAL_RCC_OscConfig+0x680>)
 8001b20:	681a      	ldr	r2, [r3, #0]
 8001b22:	4b2f      	ldr	r3, [pc, #188]	@ (8001be0 <HAL_RCC_OscConfig+0x680>)
 8001b24:	4935      	ldr	r1, [pc, #212]	@ (8001bfc <HAL_RCC_OscConfig+0x69c>)
 8001b26:	400a      	ands	r2, r1
 8001b28:	601a      	str	r2, [r3, #0]

        /* Get Start Tick */
        tickstart = HAL_GetTick();
 8001b2a:	f7fe fdbf 	bl	80006ac <HAL_GetTick>
 8001b2e:	0003      	movs	r3, r0
 8001b30:	617b      	str	r3, [r7, #20]

        /* Wait till PLL is ready */
        while(__HAL_RCC_GET_FLAG(RCC_FLAG_PLLRDY)  != 0U)
 8001b32:	e008      	b.n	8001b46 <HAL_RCC_OscConfig+0x5e6>
        {
          if((HAL_GetTick() - tickstart ) > PLL_TIMEOUT_VALUE)
 8001b34:	f7fe fdba 	bl	80006ac <HAL_GetTick>
 8001b38:	0002      	movs	r2, r0
 8001b3a:	697b      	ldr	r3, [r7, #20]
 8001b3c:	1ad3      	subs	r3, r2, r3
 8001b3e:	2b02      	cmp	r3, #2
 8001b40:	d901      	bls.n	8001b46 <HAL_RCC_OscConfig+0x5e6>
          {
            return HAL_TIMEOUT;
 8001b42:	2303      	movs	r3, #3
 8001b44:	e082      	b.n	8001c4c <HAL_RCC_OscConfig+0x6ec>
        while(__HAL_RCC_GET_FLAG(RCC_FLAG_PLLRDY)  != 0U)
 8001b46:	4b26      	ldr	r3, [pc, #152]	@ (8001be0 <HAL_RCC_OscConfig+0x680>)
 8001b48:	681a      	ldr	r2, [r3, #0]
 8001b4a:	2380      	movs	r3, #128	@ 0x80
 8001b4c:	049b      	lsls	r3, r3, #18
 8001b4e:	4013      	ands	r3, r2
 8001b50:	d1f0      	bne.n	8001b34 <HAL_RCC_OscConfig+0x5d4>
          }
        }

        /* Configure the main PLL clock source, multiplication and division factors. */
        __HAL_RCC_PLL_CONFIG(RCC_OscInitStruct->PLL.PLLSource,
 8001b52:	4b23      	ldr	r3, [pc, #140]	@ (8001be0 <HAL_RCC_OscConfig+0x680>)
 8001b54:	68db      	ldr	r3, [r3, #12]
 8001b56:	4a2a      	ldr	r2, [pc, #168]	@ (8001c00 <HAL_RCC_OscConfig+0x6a0>)
 8001b58:	4013      	ands	r3, r2
 8001b5a:	0019      	movs	r1, r3
 8001b5c:	687b      	ldr	r3, [r7, #4]
 8001b5e:	6a9a      	ldr	r2, [r3, #40]	@ 0x28
 8001b60:	687b      	ldr	r3, [r7, #4]
 8001b62:	6adb      	ldr	r3, [r3, #44]	@ 0x2c
 8001b64:	431a      	orrs	r2, r3
 8001b66:	687b      	ldr	r3, [r7, #4]
 8001b68:	6b1b      	ldr	r3, [r3, #48]	@ 0x30
 8001b6a:	431a      	orrs	r2, r3
 8001b6c:	4b1c      	ldr	r3, [pc, #112]	@ (8001be0 <HAL_RCC_OscConfig+0x680>)
 8001b6e:	430a      	orrs	r2, r1
 8001b70:	60da      	str	r2, [r3, #12]
                             RCC_OscInitStruct->PLL.PLLMUL,
                             RCC_OscInitStruct->PLL.PLLDIV);
        /* Enable the main PLL. */
        __HAL_RCC_PLL_ENABLE();
 8001b72:	4b1b      	ldr	r3, [pc, #108]	@ (8001be0 <HAL_RCC_OscConfig+0x680>)
 8001b74:	681a      	ldr	r2, [r3, #0]
 8001b76:	4b1a      	ldr	r3, [pc, #104]	@ (8001be0 <HAL_RCC_OscConfig+0x680>)
 8001b78:	2180      	movs	r1, #128	@ 0x80
 8001b7a:	0449      	lsls	r1, r1, #17
 8001b7c:	430a      	orrs	r2, r1
 8001b7e:	601a      	str	r2, [r3, #0]

        /* Get Start Tick */
        tickstart = HAL_GetTick();
 8001b80:	f7fe fd94 	bl	80006ac <HAL_GetTick>
 8001b84:	0003      	movs	r3, r0
 8001b86:	617b      	str	r3, [r7, #20]

        /* Wait till PLL is ready */
        while(__HAL_RCC_GET_FLAG(RCC_FLAG_PLLRDY)  == 0U)
 8001b88:	e008      	b.n	8001b9c <HAL_RCC_OscConfig+0x63c>
        {
          if((HAL_GetTick() - tickstart ) > PLL_TIMEOUT_VALUE)
 8001b8a:	f7fe fd8f 	bl	80006ac <HAL_GetTick>
 8001b8e:	0002      	movs	r2, r0
 8001b90:	697b      	ldr	r3, [r7, #20]
 8001b92:	1ad3      	subs	r3, r2, r3
 8001b94:	2b02      	cmp	r3, #2
 8001b96:	d901      	bls.n	8001b9c <HAL_RCC_OscConfig+0x63c>
          {
            return HAL_TIMEOUT;
 8001b98:	2303      	movs	r3, #3
 8001b9a:	e057      	b.n	8001c4c <HAL_RCC_OscConfig+0x6ec>
        while(__HAL_RCC_GET_FLAG(RCC_FLAG_PLLRDY)  == 0U)
 8001b9c:	4b10      	ldr	r3, [pc, #64]	@ (8001be0 <HAL_RCC_OscConfig+0x680>)
 8001b9e:	681a      	ldr	r2, [r3, #0]
 8001ba0:	2380      	movs	r3, #128	@ 0x80
 8001ba2:	049b      	lsls	r3, r3, #18
 8001ba4:	4013      	ands	r3, r2
 8001ba6:	d0f0      	beq.n	8001b8a <HAL_RCC_OscConfig+0x62a>
 8001ba8:	e04f      	b.n	8001c4a <HAL_RCC_OscConfig+0x6ea>
        }
      }
      else
      {
        /* Disable the main PLL. */
        __HAL_RCC_PLL_DISABLE();
 8001baa:	4b0d      	ldr	r3, [pc, #52]	@ (8001be0 <HAL_RCC_OscConfig+0x680>)
 8001bac:	681a      	ldr	r2, [r3, #0]
 8001bae:	4b0c      	ldr	r3, [pc, #48]	@ (8001be0 <HAL_RCC_OscConfig+0x680>)
 8001bb0:	4912      	ldr	r1, [pc, #72]	@ (8001bfc <HAL_RCC_OscConfig+0x69c>)
 8001bb2:	400a      	ands	r2, r1
 8001bb4:	601a      	str	r2, [r3, #0]

        /* Get Start Tick */
        tickstart = HAL_GetTick();
 8001bb6:	f7fe fd79 	bl	80006ac <HAL_GetTick>
 8001bba:	0003      	movs	r3, r0
 8001bbc:	617b      	str	r3, [r7, #20]

        /* Wait till PLL is disabled */
        while(__HAL_RCC_GET_FLAG(RCC_FLAG_PLLRDY)  != 0U)
 8001bbe:	e008      	b.n	8001bd2 <HAL_RCC_OscConfig+0x672>
        {
          if((HAL_GetTick() - tickstart ) > PLL_TIMEOUT_VALUE)
 8001bc0:	f7fe fd74 	bl	80006ac <HAL_GetTick>
 8001bc4:	0002      	movs	r2, r0
 8001bc6:	697b      	ldr	r3, [r7, #20]
 8001bc8:	1ad3      	subs	r3, r2, r3
 8001bca:	2b02      	cmp	r3, #2
 8001bcc:	d901      	bls.n	8001bd2 <HAL_RCC_OscConfig+0x672>
          {
            return HAL_TIMEOUT;
 8001bce:	2303      	movs	r3, #3
 8001bd0:	e03c      	b.n	8001c4c <HAL_RCC_OscConfig+0x6ec>
        while(__HAL_RCC_GET_FLAG(RCC_FLAG_PLLRDY)  != 0U)
 8001bd2:	4b03      	ldr	r3, [pc, #12]	@ (8001be0 <HAL_RCC_OscConfig+0x680>)
 8001bd4:	681a      	ldr	r2, [r3, #0]
 8001bd6:	2380      	movs	r3, #128	@ 0x80
 8001bd8:	049b      	lsls	r3, r3, #18
 8001bda:	4013      	ands	r3, r2
 8001bdc:	d1f0      	bne.n	8001bc0 <HAL_RCC_OscConfig+0x660>
 8001bde:	e034      	b.n	8001c4a <HAL_RCC_OscConfig+0x6ea>
 8001be0:	40021000 	.word	0x40021000
 8001be4:	ffff1fff 	.word	0xffff1fff
 8001be8:	fffffeff 	.word	0xfffffeff
 8001bec:	40007000 	.word	0x40007000
 8001bf0:	fffffbff 	.word	0xfffffbff
 8001bf4:	00001388 	.word	0x00001388
 8001bf8:	efffffff 	.word	0xefffffff
 8001bfc:	feffffff 	.word	0xfeffffff
 8001c00:	ff02ffff 	.word	0xff02ffff
      }
    }
    else
    {
      /* Check if there is a request to disable the PLL used as System clock source */
      if((RCC_OscInitStruct->PLL.PLLState) == RCC_PLL_OFF)
 8001c04:	687b      	ldr	r3, [r7, #4]
 8001c06:	6a5b      	ldr	r3, [r3, #36]	@ 0x24
 8001c08:	2b01      	cmp	r3, #1
 8001c0a:	d101      	bne.n	8001c10 <HAL_RCC_OscConfig+0x6b0>
      {
        return HAL_ERROR;
 8001c0c:	2301      	movs	r3, #1
 8001c0e:	e01d      	b.n	8001c4c <HAL_RCC_OscConfig+0x6ec>
      }
      else
      {
        /* Do not return HAL_ERROR if request repeats the current configuration */
        pll_config = RCC->CFGR;
 8001c10:	4b10      	ldr	r3, [pc, #64]	@ (8001c54 <HAL_RCC_OscConfig+0x6f4>)
 8001c12:	68db      	ldr	r3, [r3, #12]
 8001c14:	61bb      	str	r3, [r7, #24]
        if((READ_BIT(pll_config, RCC_CFGR_PLLSRC) != RCC_OscInitStruct->PLL.PLLSource) ||
 8001c16:	69ba      	ldr	r2, [r7, #24]
 8001c18:	2380      	movs	r3, #128	@ 0x80
 8001c1a:	025b      	lsls	r3, r3, #9
 8001c1c:	401a      	ands	r2, r3
 8001c1e:	687b      	ldr	r3, [r7, #4]
 8001c20:	6a9b      	ldr	r3, [r3, #40]	@ 0x28
 8001c22:	429a      	cmp	r2, r3
 8001c24:	d10f      	bne.n	8001c46 <HAL_RCC_OscConfig+0x6e6>
           (READ_BIT(pll_config, RCC_CFGR_PLLMUL) != RCC_OscInitStruct->PLL.PLLMUL) ||
 8001c26:	69ba      	ldr	r2, [r7, #24]
 8001c28:	23f0      	movs	r3, #240	@ 0xf0
 8001c2a:	039b      	lsls	r3, r3, #14
 8001c2c:	401a      	ands	r2, r3
 8001c2e:	687b      	ldr	r3, [r7, #4]
 8001c30:	6adb      	ldr	r3, [r3, #44]	@ 0x2c
        if((READ_BIT(pll_config, RCC_CFGR_PLLSRC) != RCC_OscInitStruct->PLL.PLLSource) ||
 8001c32:	429a      	cmp	r2, r3
 8001c34:	d107      	bne.n	8001c46 <HAL_RCC_OscConfig+0x6e6>
           (READ_BIT(pll_config, RCC_CFGR_PLLDIV) != RCC_OscInitStruct->PLL.PLLDIV))
 8001c36:	69ba      	ldr	r2, [r7, #24]
 8001c38:	23c0      	movs	r3, #192	@ 0xc0
 8001c3a:	041b      	lsls	r3, r3, #16
 8001c3c:	401a      	ands	r2, r3
 8001c3e:	687b      	ldr	r3, [r7, #4]
 8001c40:	6b1b      	ldr	r3, [r3, #48]	@ 0x30
           (READ_BIT(pll_config, RCC_CFGR_PLLMUL) != RCC_OscInitStruct->PLL.PLLMUL) ||
 8001c42:	429a      	cmp	r2, r3
 8001c44:	d001      	beq.n	8001c4a <HAL_RCC_OscConfig+0x6ea>
        {
          return HAL_ERROR;
 8001c46:	2301      	movs	r3, #1
 8001c48:	e000      	b.n	8001c4c <HAL_RCC_OscConfig+0x6ec>
        }
      }
    }
  }
  return HAL_OK;
 8001c4a:	2300      	movs	r3, #0
}
 8001c4c:	0018      	movs	r0, r3
 8001c4e:	46bd      	mov	sp, r7
 8001c50:	b00a      	add	sp, #40	@ 0x28
 8001c52:	bdb0      	pop	{r4, r5, r7, pc}
 8001c54:	40021000 	.word	0x40021000

08001c58 <HAL_RCC_ClockConfig>:
  *         HPRE[3:0] bits to ensure that HCLK not exceed the maximum allowed frequency
  *         (for more details refer to section above "Initialization/de-initialization functions")
  * @retval HAL status
  */
HAL_StatusTypeDef HAL_RCC_ClockConfig(const RCC_ClkInitTypeDef  *RCC_ClkInitStruct, uint32_t FLatency)
{
 8001c58:	b5b0      	push	{r4, r5, r7, lr}
 8001c5a:	b084      	sub	sp, #16
 8001c5c:	af00      	add	r7, sp, #0
 8001c5e:	6078      	str	r0, [r7, #4]
 8001c60:	6039      	str	r1, [r7, #0]
  uint32_t tickstart;
  HAL_StatusTypeDef status;

  /* Check Null pointer */
  if(RCC_ClkInitStruct == NULL)
 8001c62:	687b      	ldr	r3, [r7, #4]
 8001c64:	2b00      	cmp	r3, #0
 8001c66:	d101      	bne.n	8001c6c <HAL_RCC_ClockConfig+0x14>
  {
    return HAL_ERROR;
 8001c68:	2301      	movs	r3, #1
 8001c6a:	e128      	b.n	8001ebe <HAL_RCC_ClockConfig+0x266>
  /* To correctly read data from FLASH memory, the number of wait states (LATENCY)
  must be correctly programmed according to the frequency of the CPU clock
  (HCLK) and the supply voltage of the device. */

  /* Increasing the number of wait states because of higher CPU frequency */
  if(FLatency > __HAL_FLASH_GET_LATENCY())
 8001c6c:	4b96      	ldr	r3, [pc, #600]	@ (8001ec8 <HAL_RCC_ClockConfig+0x270>)
 8001c6e:	681b      	ldr	r3, [r3, #0]
 8001c70:	2201      	movs	r2, #1
 8001c72:	4013      	ands	r3, r2
 8001c74:	683a      	ldr	r2, [r7, #0]
 8001c76:	429a      	cmp	r2, r3
 8001c78:	d91e      	bls.n	8001cb8 <HAL_RCC_ClockConfig+0x60>
  {
    /* Program the new number of wait states to the LATENCY bits in the FLASH_ACR register */
    __HAL_FLASH_SET_LATENCY(FLatency);
 8001c7a:	4b93      	ldr	r3, [pc, #588]	@ (8001ec8 <HAL_RCC_ClockConfig+0x270>)
 8001c7c:	681b      	ldr	r3, [r3, #0]
 8001c7e:	2201      	movs	r2, #1
 8001c80:	4393      	bics	r3, r2
 8001c82:	0019      	movs	r1, r3
 8001c84:	4b90      	ldr	r3, [pc, #576]	@ (8001ec8 <HAL_RCC_ClockConfig+0x270>)
 8001c86:	683a      	ldr	r2, [r7, #0]
 8001c88:	430a      	orrs	r2, r1
 8001c8a:	601a      	str	r2, [r3, #0]

    /* Check that the new number of wait states is taken into account to access the Flash
    memory by polling the FLASH_ACR register */
    tickstart = HAL_GetTick();
 8001c8c:	f7fe fd0e 	bl	80006ac <HAL_GetTick>
 8001c90:	0003      	movs	r3, r0
 8001c92:	60fb      	str	r3, [r7, #12]

    while (__HAL_FLASH_GET_LATENCY() != FLatency)
 8001c94:	e009      	b.n	8001caa <HAL_RCC_ClockConfig+0x52>
    {
      if ((HAL_GetTick() - tickstart) > CLOCKSWITCH_TIMEOUT_VALUE)
 8001c96:	f7fe fd09 	bl	80006ac <HAL_GetTick>
 8001c9a:	0002      	movs	r2, r0
 8001c9c:	68fb      	ldr	r3, [r7, #12]
 8001c9e:	1ad3      	subs	r3, r2, r3
 8001ca0:	4a8a      	ldr	r2, [pc, #552]	@ (8001ecc <HAL_RCC_ClockConfig+0x274>)
 8001ca2:	4293      	cmp	r3, r2
 8001ca4:	d901      	bls.n	8001caa <HAL_RCC_ClockConfig+0x52>
      {
        return HAL_TIMEOUT;
 8001ca6:	2303      	movs	r3, #3
 8001ca8:	e109      	b.n	8001ebe <HAL_RCC_ClockConfig+0x266>
    while (__HAL_FLASH_GET_LATENCY() != FLatency)
 8001caa:	4b87      	ldr	r3, [pc, #540]	@ (8001ec8 <HAL_RCC_ClockConfig+0x270>)
 8001cac:	681b      	ldr	r3, [r3, #0]
 8001cae:	2201      	movs	r2, #1
 8001cb0:	4013      	ands	r3, r2
 8001cb2:	683a      	ldr	r2, [r7, #0]
 8001cb4:	429a      	cmp	r2, r3
 8001cb6:	d1ee      	bne.n	8001c96 <HAL_RCC_ClockConfig+0x3e>
      }
    }
  }

  /*-------------------------- HCLK Configuration --------------------------*/
  if(((RCC_ClkInitStruct->ClockType) & RCC_CLOCKTYPE_HCLK) == RCC_CLOCKTYPE_HCLK)
 8001cb8:	687b      	ldr	r3, [r7, #4]
 8001cba:	681b      	ldr	r3, [r3, #0]
 8001cbc:	2202      	movs	r2, #2
 8001cbe:	4013      	ands	r3, r2
 8001cc0:	d009      	beq.n	8001cd6 <HAL_RCC_ClockConfig+0x7e>
  {
    assert_param(IS_RCC_HCLK(RCC_ClkInitStruct->AHBCLKDivider));
    MODIFY_REG(RCC->CFGR, RCC_CFGR_HPRE, RCC_ClkInitStruct->AHBCLKDivider);
 8001cc2:	4b83      	ldr	r3, [pc, #524]	@ (8001ed0 <HAL_RCC_ClockConfig+0x278>)
 8001cc4:	68db      	ldr	r3, [r3, #12]
 8001cc6:	22f0      	movs	r2, #240	@ 0xf0
 8001cc8:	4393      	bics	r3, r2
 8001cca:	0019      	movs	r1, r3
 8001ccc:	687b      	ldr	r3, [r7, #4]
 8001cce:	689a      	ldr	r2, [r3, #8]
 8001cd0:	4b7f      	ldr	r3, [pc, #508]	@ (8001ed0 <HAL_RCC_ClockConfig+0x278>)
 8001cd2:	430a      	orrs	r2, r1
 8001cd4:	60da      	str	r2, [r3, #12]
  }

  /*------------------------- SYSCLK Configuration ---------------------------*/
  if(((RCC_ClkInitStruct->ClockType) & RCC_CLOCKTYPE_SYSCLK) == RCC_CLOCKTYPE_SYSCLK)
 8001cd6:	687b      	ldr	r3, [r7, #4]
 8001cd8:	681b      	ldr	r3, [r3, #0]
 8001cda:	2201      	movs	r2, #1
 8001cdc:	4013      	ands	r3, r2
 8001cde:	d100      	bne.n	8001ce2 <HAL_RCC_ClockConfig+0x8a>
 8001ce0:	e089      	b.n	8001df6 <HAL_RCC_ClockConfig+0x19e>
  {
    assert_param(IS_RCC_SYSCLKSOURCE(RCC_ClkInitStruct->SYSCLKSource));

    /* HSE is selected as System Clock Source */
    if(RCC_ClkInitStruct->SYSCLKSource == RCC_SYSCLKSOURCE_HSE)
 8001ce2:	687b      	ldr	r3, [r7, #4]
 8001ce4:	685b      	ldr	r3, [r3, #4]
 8001ce6:	2b02      	cmp	r3, #2
 8001ce8:	d107      	bne.n	8001cfa <HAL_RCC_ClockConfig+0xa2>
    {
      /* Check the HSE ready flag */
      if(__HAL_RCC_GET_FLAG(RCC_FLAG_HSERDY) == 0U)
 8001cea:	4b79      	ldr	r3, [pc, #484]	@ (8001ed0 <HAL_RCC_ClockConfig+0x278>)
 8001cec:	681a      	ldr	r2, [r3, #0]
 8001cee:	2380      	movs	r3, #128	@ 0x80
 8001cf0:	029b      	lsls	r3, r3, #10
 8001cf2:	4013      	ands	r3, r2
 8001cf4:	d120      	bne.n	8001d38 <HAL_RCC_ClockConfig+0xe0>
      {
        return HAL_ERROR;
 8001cf6:	2301      	movs	r3, #1
 8001cf8:	e0e1      	b.n	8001ebe <HAL_RCC_ClockConfig+0x266>
      }
    }
    /* PLL is selected as System Clock Source */
    else if(RCC_ClkInitStruct->SYSCLKSource == RCC_SYSCLKSOURCE_PLLCLK)
 8001cfa:	687b      	ldr	r3, [r7, #4]
 8001cfc:	685b      	ldr	r3, [r3, #4]
 8001cfe:	2b03      	cmp	r3, #3
 8001d00:	d107      	bne.n	8001d12 <HAL_RCC_ClockConfig+0xba>
    {
      /* Check the PLL ready flag */
      if(__HAL_RCC_GET_FLAG(RCC_FLAG_PLLRDY) == 0U)
 8001d02:	4b73      	ldr	r3, [pc, #460]	@ (8001ed0 <HAL_RCC_ClockConfig+0x278>)
 8001d04:	681a      	ldr	r2, [r3, #0]
 8001d06:	2380      	movs	r3, #128	@ 0x80
 8001d08:	049b      	lsls	r3, r3, #18
 8001d0a:	4013      	ands	r3, r2
 8001d0c:	d114      	bne.n	8001d38 <HAL_RCC_ClockConfig+0xe0>
      {
        return HAL_ERROR;
 8001d0e:	2301      	movs	r3, #1
 8001d10:	e0d5      	b.n	8001ebe <HAL_RCC_ClockConfig+0x266>
      }
    }
    /* HSI is selected as System Clock Source */
    else if(RCC_ClkInitStruct->SYSCLKSource == RCC_SYSCLKSOURCE_HSI)
 8001d12:	687b      	ldr	r3, [r7, #4]
 8001d14:	685b      	ldr	r3, [r3, #4]
 8001d16:	2b01      	cmp	r3, #1
 8001d18:	d106      	bne.n	8001d28 <HAL_RCC_ClockConfig+0xd0>
    {
      /* Check the HSI ready flag */
      if(__HAL_RCC_GET_FLAG(RCC_FLAG_HSIRDY) == 0U)
 8001d1a:	4b6d      	ldr	r3, [pc, #436]	@ (8001ed0 <HAL_RCC_ClockConfig+0x278>)
 8001d1c:	681b      	ldr	r3, [r3, #0]
 8001d1e:	2204      	movs	r2, #4
 8001d20:	4013      	ands	r3, r2
 8001d22:	d109      	bne.n	8001d38 <HAL_RCC_ClockConfig+0xe0>
      {
        return HAL_ERROR;
 8001d24:	2301      	movs	r3, #1
 8001d26:	e0ca      	b.n	8001ebe <HAL_RCC_ClockConfig+0x266>
    }
    /* MSI is selected as System Clock Source */
    else
    {
      /* Check the MSI ready flag */
      if(__HAL_RCC_GET_FLAG(RCC_FLAG_MSIRDY) == 0U)
 8001d28:	4b69      	ldr	r3, [pc, #420]	@ (8001ed0 <HAL_RCC_ClockConfig+0x278>)
 8001d2a:	681a      	ldr	r2, [r3, #0]
 8001d2c:	2380      	movs	r3, #128	@ 0x80
 8001d2e:	009b      	lsls	r3, r3, #2
 8001d30:	4013      	ands	r3, r2
 8001d32:	d101      	bne.n	8001d38 <HAL_RCC_ClockConfig+0xe0>
      {
        return HAL_ERROR;
 8001d34:	2301      	movs	r3, #1
 8001d36:	e0c2      	b.n	8001ebe <HAL_RCC_ClockConfig+0x266>
      }
    }
    __HAL_RCC_SYSCLK_CONFIG(RCC_ClkInitStruct->SYSCLKSource);
 8001d38:	4b65      	ldr	r3, [pc, #404]	@ (8001ed0 <HAL_RCC_ClockConfig+0x278>)
 8001d3a:	68db      	ldr	r3, [r3, #12]
 8001d3c:	2203      	movs	r2, #3
 8001d3e:	4393      	bics	r3, r2
 8001d40:	0019      	movs	r1, r3
 8001d42:	687b      	ldr	r3, [r7, #4]
 8001d44:	685a      	ldr	r2, [r3, #4]
 8001d46:	4b62      	ldr	r3, [pc, #392]	@ (8001ed0 <HAL_RCC_ClockConfig+0x278>)
 8001d48:	430a      	orrs	r2, r1
 8001d4a:	60da      	str	r2, [r3, #12]

    /* Get Start Tick */
    tickstart = HAL_GetTick();
 8001d4c:	f7fe fcae 	bl	80006ac <HAL_GetTick>
 8001d50:	0003      	movs	r3, r0
 8001d52:	60fb      	str	r3, [r7, #12]

    if(RCC_ClkInitStruct->SYSCLKSource == RCC_SYSCLKSOURCE_HSE)
 8001d54:	687b      	ldr	r3, [r7, #4]
 8001d56:	685b      	ldr	r3, [r3, #4]
 8001d58:	2b02      	cmp	r3, #2
 8001d5a:	d111      	bne.n	8001d80 <HAL_RCC_ClockConfig+0x128>
    {
      while (__HAL_RCC_GET_SYSCLK_SOURCE() != RCC_SYSCLKSOURCE_STATUS_HSE)
 8001d5c:	e009      	b.n	8001d72 <HAL_RCC_ClockConfig+0x11a>
      {
        if((HAL_GetTick() - tickstart ) > CLOCKSWITCH_TIMEOUT_VALUE)
 8001d5e:	f7fe fca5 	bl	80006ac <HAL_GetTick>
 8001d62:	0002      	movs	r2, r0
 8001d64:	68fb      	ldr	r3, [r7, #12]
 8001d66:	1ad3      	subs	r3, r2, r3
 8001d68:	4a58      	ldr	r2, [pc, #352]	@ (8001ecc <HAL_RCC_ClockConfig+0x274>)
 8001d6a:	4293      	cmp	r3, r2
 8001d6c:	d901      	bls.n	8001d72 <HAL_RCC_ClockConfig+0x11a>
        {
          return HAL_TIMEOUT;
 8001d6e:	2303      	movs	r3, #3
 8001d70:	e0a5      	b.n	8001ebe <HAL_RCC_ClockConfig+0x266>
      while (__HAL_RCC_GET_SYSCLK_SOURCE() != RCC_SYSCLKSOURCE_STATUS_HSE)
 8001d72:	4b57      	ldr	r3, [pc, #348]	@ (8001ed0 <HAL_RCC_ClockConfig+0x278>)
 8001d74:	68db      	ldr	r3, [r3, #12]
 8001d76:	220c      	movs	r2, #12
 8001d78:	4013      	ands	r3, r2
 8001d7a:	2b08      	cmp	r3, #8
 8001d7c:	d1ef      	bne.n	8001d5e <HAL_RCC_ClockConfig+0x106>
 8001d7e:	e03a      	b.n	8001df6 <HAL_RCC_ClockConfig+0x19e>
        }
      }
    }
    else if(RCC_ClkInitStruct->SYSCLKSource == RCC_SYSCLKSOURCE_PLLCLK)
 8001d80:	687b      	ldr	r3, [r7, #4]
 8001d82:	685b      	ldr	r3, [r3, #4]
 8001d84:	2b03      	cmp	r3, #3
 8001d86:	d111      	bne.n	8001dac <HAL_RCC_ClockConfig+0x154>
    {
      while (__HAL_RCC_GET_SYSCLK_SOURCE() != RCC_SYSCLKSOURCE_STATUS_PLLCLK)
 8001d88:	e009      	b.n	8001d9e <HAL_RCC_ClockConfig+0x146>
      {
        if((HAL_GetTick() - tickstart ) > CLOCKSWITCH_TIMEOUT_VALUE)
 8001d8a:	f7fe fc8f 	bl	80006ac <HAL_GetTick>
 8001d8e:	0002      	movs	r2, r0
 8001d90:	68fb      	ldr	r3, [r7, #12]
 8001d92:	1ad3      	subs	r3, r2, r3
 8001d94:	4a4d      	ldr	r2, [pc, #308]	@ (8001ecc <HAL_RCC_ClockConfig+0x274>)
 8001d96:	4293      	cmp	r3, r2
 8001d98:	d901      	bls.n	8001d9e <HAL_RCC_ClockConfig+0x146>
        {
          return HAL_TIMEOUT;
 8001d9a:	2303      	movs	r3, #3
 8001d9c:	e08f      	b.n	8001ebe <HAL_RCC_ClockConfig+0x266>
      while (__HAL_RCC_GET_SYSCLK_SOURCE() != RCC_SYSCLKSOURCE_STATUS_PLLCLK)
 8001d9e:	4b4c      	ldr	r3, [pc, #304]	@ (8001ed0 <HAL_RCC_ClockConfig+0x278>)
 8001da0:	68db      	ldr	r3, [r3, #12]
 8001da2:	220c      	movs	r2, #12
 8001da4:	4013      	ands	r3, r2
 8001da6:	2b0c      	cmp	r3, #12
 8001da8:	d1ef      	bne.n	8001d8a <HAL_RCC_ClockConfig+0x132>
 8001daa:	e024      	b.n	8001df6 <HAL_RCC_ClockConfig+0x19e>
        }
      }
    }
    else if(RCC_ClkInitStruct->SYSCLKSource == RCC_SYSCLKSOURCE_HSI)
 8001dac:	687b      	ldr	r3, [r7, #4]
 8001dae:	685b      	ldr	r3, [r3, #4]
 8001db0:	2b01      	cmp	r3, #1
 8001db2:	d11b      	bne.n	8001dec <HAL_RCC_ClockConfig+0x194>
    {
      while (__HAL_RCC_GET_SYSCLK_SOURCE() != RCC_SYSCLKSOURCE_STATUS_HSI)
 8001db4:	e009      	b.n	8001dca <HAL_RCC_ClockConfig+0x172>
      {
        if((HAL_GetTick() - tickstart ) > CLOCKSWITCH_TIMEOUT_VALUE)
 8001db6:	f7fe fc79 	bl	80006ac <HAL_GetTick>
 8001dba:	0002      	movs	r2, r0
 8001dbc:	68fb      	ldr	r3, [r7, #12]
 8001dbe:	1ad3      	subs	r3, r2, r3
 8001dc0:	4a42      	ldr	r2, [pc, #264]	@ (8001ecc <HAL_RCC_ClockConfig+0x274>)
 8001dc2:	4293      	cmp	r3, r2
 8001dc4:	d901      	bls.n	8001dca <HAL_RCC_ClockConfig+0x172>
        {
          return HAL_TIMEOUT;
 8001dc6:	2303      	movs	r3, #3
 8001dc8:	e079      	b.n	8001ebe <HAL_RCC_ClockConfig+0x266>
      while (__HAL_RCC_GET_SYSCLK_SOURCE() != RCC_SYSCLKSOURCE_STATUS_HSI)
 8001dca:	4b41      	ldr	r3, [pc, #260]	@ (8001ed0 <HAL_RCC_ClockConfig+0x278>)
 8001dcc:	68db      	ldr	r3, [r3, #12]
 8001dce:	220c      	movs	r2, #12
 8001dd0:	4013      	ands	r3, r2
 8001dd2:	2b04      	cmp	r3, #4
 8001dd4:	d1ef      	bne.n	8001db6 <HAL_RCC_ClockConfig+0x15e>
 8001dd6:	e00e      	b.n	8001df6 <HAL_RCC_ClockConfig+0x19e>
    }
    else
    {
      while(__HAL_RCC_GET_SYSCLK_SOURCE() != RCC_SYSCLKSOURCE_STATUS_MSI)
      {
        if((HAL_GetTick() - tickstart ) > CLOCKSWITCH_TIMEOUT_VALUE)
 8001dd8:	f7fe fc68 	bl	80006ac <HAL_GetTick>
 8001ddc:	0002      	movs	r2, r0
 8001dde:	68fb      	ldr	r3, [r7, #12]
 8001de0:	1ad3      	subs	r3, r2, r3
 8001de2:	4a3a      	ldr	r2, [pc, #232]	@ (8001ecc <HAL_RCC_ClockConfig+0x274>)
 8001de4:	4293      	cmp	r3, r2
 8001de6:	d901      	bls.n	8001dec <HAL_RCC_ClockConfig+0x194>
        {
          return HAL_TIMEOUT;
 8001de8:	2303      	movs	r3, #3
 8001dea:	e068      	b.n	8001ebe <HAL_RCC_ClockConfig+0x266>
      while(__HAL_RCC_GET_SYSCLK_SOURCE() != RCC_SYSCLKSOURCE_STATUS_MSI)
 8001dec:	4b38      	ldr	r3, [pc, #224]	@ (8001ed0 <HAL_RCC_ClockConfig+0x278>)
 8001dee:	68db      	ldr	r3, [r3, #12]
 8001df0:	220c      	movs	r2, #12
 8001df2:	4013      	ands	r3, r2
 8001df4:	d1f0      	bne.n	8001dd8 <HAL_RCC_ClockConfig+0x180>
        }
      }
    }
  }
  /* Decreasing the number of wait states because of lower CPU frequency */
  if(FLatency < __HAL_FLASH_GET_LATENCY())
 8001df6:	4b34      	ldr	r3, [pc, #208]	@ (8001ec8 <HAL_RCC_ClockConfig+0x270>)
 8001df8:	681b      	ldr	r3, [r3, #0]
 8001dfa:	2201      	movs	r2, #1
 8001dfc:	4013      	ands	r3, r2
 8001dfe:	683a      	ldr	r2, [r7, #0]
 8001e00:	429a      	cmp	r2, r3
 8001e02:	d21e      	bcs.n	8001e42 <HAL_RCC_ClockConfig+0x1ea>
  {
    /* Program the new number of wait states to the LATENCY bits in the FLASH_ACR register */
    __HAL_FLASH_SET_LATENCY(FLatency);
 8001e04:	4b30      	ldr	r3, [pc, #192]	@ (8001ec8 <HAL_RCC_ClockConfig+0x270>)
 8001e06:	681b      	ldr	r3, [r3, #0]
 8001e08:	2201      	movs	r2, #1
 8001e0a:	4393      	bics	r3, r2
 8001e0c:	0019      	movs	r1, r3
 8001e0e:	4b2e      	ldr	r3, [pc, #184]	@ (8001ec8 <HAL_RCC_ClockConfig+0x270>)
 8001e10:	683a      	ldr	r2, [r7, #0]
 8001e12:	430a      	orrs	r2, r1
 8001e14:	601a      	str	r2, [r3, #0]

    /* Check that the new number of wait states is taken into account to access the Flash
    memory by polling the FLASH_ACR register */
    tickstart = HAL_GetTick();
 8001e16:	f7fe fc49 	bl	80006ac <HAL_GetTick>
 8001e1a:	0003      	movs	r3, r0
 8001e1c:	60fb      	str	r3, [r7, #12]

    while (__HAL_FLASH_GET_LATENCY() != FLatency)
 8001e1e:	e009      	b.n	8001e34 <HAL_RCC_ClockConfig+0x1dc>
    {
      if ((HAL_GetTick() - tickstart) > CLOCKSWITCH_TIMEOUT_VALUE)
 8001e20:	f7fe fc44 	bl	80006ac <HAL_GetTick>
 8001e24:	0002      	movs	r2, r0
 8001e26:	68fb      	ldr	r3, [r7, #12]
 8001e28:	1ad3      	subs	r3, r2, r3
 8001e2a:	4a28      	ldr	r2, [pc, #160]	@ (8001ecc <HAL_RCC_ClockConfig+0x274>)
 8001e2c:	4293      	cmp	r3, r2
 8001e2e:	d901      	bls.n	8001e34 <HAL_RCC_ClockConfig+0x1dc>
      {
        return HAL_TIMEOUT;
 8001e30:	2303      	movs	r3, #3
 8001e32:	e044      	b.n	8001ebe <HAL_RCC_ClockConfig+0x266>
    while (__HAL_FLASH_GET_LATENCY() != FLatency)
 8001e34:	4b24      	ldr	r3, [pc, #144]	@ (8001ec8 <HAL_RCC_ClockConfig+0x270>)
 8001e36:	681b      	ldr	r3, [r3, #0]
 8001e38:	2201      	movs	r2, #1
 8001e3a:	4013      	ands	r3, r2
 8001e3c:	683a      	ldr	r2, [r7, #0]
 8001e3e:	429a      	cmp	r2, r3
 8001e40:	d1ee      	bne.n	8001e20 <HAL_RCC_ClockConfig+0x1c8>
      }
    }
  }

  /*-------------------------- PCLK1 Configuration ---------------------------*/
  if(((RCC_ClkInitStruct->ClockType) & RCC_CLOCKTYPE_PCLK1) == RCC_CLOCKTYPE_PCLK1)
 8001e42:	687b      	ldr	r3, [r7, #4]
 8001e44:	681b      	ldr	r3, [r3, #0]
 8001e46:	2204      	movs	r2, #4
 8001e48:	4013      	ands	r3, r2
 8001e4a:	d009      	beq.n	8001e60 <HAL_RCC_ClockConfig+0x208>
  {
    assert_param(IS_RCC_PCLK(RCC_ClkInitStruct->APB1CLKDivider));
    MODIFY_REG(RCC->CFGR, RCC_CFGR_PPRE1, RCC_ClkInitStruct->APB1CLKDivider);
 8001e4c:	4b20      	ldr	r3, [pc, #128]	@ (8001ed0 <HAL_RCC_ClockConfig+0x278>)
 8001e4e:	68db      	ldr	r3, [r3, #12]
 8001e50:	4a20      	ldr	r2, [pc, #128]	@ (8001ed4 <HAL_RCC_ClockConfig+0x27c>)
 8001e52:	4013      	ands	r3, r2
 8001e54:	0019      	movs	r1, r3
 8001e56:	687b      	ldr	r3, [r7, #4]
 8001e58:	68da      	ldr	r2, [r3, #12]
 8001e5a:	4b1d      	ldr	r3, [pc, #116]	@ (8001ed0 <HAL_RCC_ClockConfig+0x278>)
 8001e5c:	430a      	orrs	r2, r1
 8001e5e:	60da      	str	r2, [r3, #12]
  }

  /*-------------------------- PCLK2 Configuration ---------------------------*/
  if(((RCC_ClkInitStruct->ClockType) & RCC_CLOCKTYPE_PCLK2) == RCC_CLOCKTYPE_PCLK2)
 8001e60:	687b      	ldr	r3, [r7, #4]
 8001e62:	681b      	ldr	r3, [r3, #0]
 8001e64:	2208      	movs	r2, #8
 8001e66:	4013      	ands	r3, r2
 8001e68:	d00a      	beq.n	8001e80 <HAL_RCC_ClockConfig+0x228>
  {
    assert_param(IS_RCC_PCLK(RCC_ClkInitStruct->APB2CLKDivider));
    MODIFY_REG(RCC->CFGR, RCC_CFGR_PPRE2, ((RCC_ClkInitStruct->APB2CLKDivider) << 3));
 8001e6a:	4b19      	ldr	r3, [pc, #100]	@ (8001ed0 <HAL_RCC_ClockConfig+0x278>)
 8001e6c:	68db      	ldr	r3, [r3, #12]
 8001e6e:	4a1a      	ldr	r2, [pc, #104]	@ (8001ed8 <HAL_RCC_ClockConfig+0x280>)
 8001e70:	4013      	ands	r3, r2
 8001e72:	0019      	movs	r1, r3
 8001e74:	687b      	ldr	r3, [r7, #4]
 8001e76:	691b      	ldr	r3, [r3, #16]
 8001e78:	00da      	lsls	r2, r3, #3
 8001e7a:	4b15      	ldr	r3, [pc, #84]	@ (8001ed0 <HAL_RCC_ClockConfig+0x278>)
 8001e7c:	430a      	orrs	r2, r1
 8001e7e:	60da      	str	r2, [r3, #12]
  }

  /* Update the SystemCoreClock global variable */
  SystemCoreClock = HAL_RCC_GetSysClockFreq() >> AHBPrescTable[(RCC->CFGR & RCC_CFGR_HPRE)>> RCC_CFGR_HPRE_Pos];
 8001e80:	f000 f832 	bl	8001ee8 <HAL_RCC_GetSysClockFreq>
 8001e84:	0001      	movs	r1, r0
 8001e86:	4b12      	ldr	r3, [pc, #72]	@ (8001ed0 <HAL_RCC_ClockConfig+0x278>)
 8001e88:	68db      	ldr	r3, [r3, #12]
 8001e8a:	091b      	lsrs	r3, r3, #4
 8001e8c:	220f      	movs	r2, #15
 8001e8e:	4013      	ands	r3, r2
 8001e90:	4a12      	ldr	r2, [pc, #72]	@ (8001edc <HAL_RCC_ClockConfig+0x284>)
 8001e92:	5cd3      	ldrb	r3, [r2, r3]
 8001e94:	000a      	movs	r2, r1
 8001e96:	40da      	lsrs	r2, r3
 8001e98:	4b11      	ldr	r3, [pc, #68]	@ (8001ee0 <HAL_RCC_ClockConfig+0x288>)
 8001e9a:	601a      	str	r2, [r3, #0]

  /* Configure the source of time base considering new system clocks settings*/
  status = HAL_InitTick(uwTickPrio);
 8001e9c:	4b11      	ldr	r3, [pc, #68]	@ (8001ee4 <HAL_RCC_ClockConfig+0x28c>)
 8001e9e:	681b      	ldr	r3, [r3, #0]
 8001ea0:	250b      	movs	r5, #11
 8001ea2:	197c      	adds	r4, r7, r5
 8001ea4:	0018      	movs	r0, r3
 8001ea6:	f7fe fbbb 	bl	8000620 <HAL_InitTick>
 8001eaa:	0003      	movs	r3, r0
 8001eac:	7023      	strb	r3, [r4, #0]
  if(status != HAL_OK)
 8001eae:	197b      	adds	r3, r7, r5
 8001eb0:	781b      	ldrb	r3, [r3, #0]
 8001eb2:	2b00      	cmp	r3, #0
 8001eb4:	d002      	beq.n	8001ebc <HAL_RCC_ClockConfig+0x264>
  {
    return status;
 8001eb6:	197b      	adds	r3, r7, r5
 8001eb8:	781b      	ldrb	r3, [r3, #0]
 8001eba:	e000      	b.n	8001ebe <HAL_RCC_ClockConfig+0x266>
  }

  return HAL_OK;
 8001ebc:	2300      	movs	r3, #0
}
 8001ebe:	0018      	movs	r0, r3
 8001ec0:	46bd      	mov	sp, r7
 8001ec2:	b004      	add	sp, #16
 8001ec4:	bdb0      	pop	{r4, r5, r7, pc}
 8001ec6:	46c0      	nop			@ (mov r8, r8)
 8001ec8:	40022000 	.word	0x40022000
 8001ecc:	00001388 	.word	0x00001388
 8001ed0:	40021000 	.word	0x40021000
 8001ed4:	fffff8ff 	.word	0xfffff8ff
 8001ed8:	ffffc7ff 	.word	0xffffc7ff
 8001edc:	08002064 	.word	0x08002064
 8001ee0:	20000000 	.word	0x20000000
 8001ee4:	20000004 	.word	0x20000004

08001ee8 <HAL_RCC_GetSysClockFreq>:
  *         right SYSCLK value. Otherwise, any configuration based on this function will be incorrect.
  *
  * @retval SYSCLK frequency
  */
uint32_t HAL_RCC_GetSysClockFreq(void)
{
 8001ee8:	b580      	push	{r7, lr}
 8001eea:	b086      	sub	sp, #24
 8001eec:	af00      	add	r7, sp, #0
  uint32_t tmpreg, pllm, plld, pllvco, msiclkrange;    /* no init needed */
  uint32_t sysclockfreq;

  tmpreg = RCC->CFGR;
 8001eee:	4b3c      	ldr	r3, [pc, #240]	@ (8001fe0 <HAL_RCC_GetSysClockFreq+0xf8>)
 8001ef0:	68db      	ldr	r3, [r3, #12]
 8001ef2:	60fb      	str	r3, [r7, #12]

  /* Get SYSCLK source -------------------------------------------------------*/
  switch (tmpreg & RCC_CFGR_SWS)
 8001ef4:	68fb      	ldr	r3, [r7, #12]
 8001ef6:	220c      	movs	r2, #12
 8001ef8:	4013      	ands	r3, r2
 8001efa:	2b0c      	cmp	r3, #12
 8001efc:	d013      	beq.n	8001f26 <HAL_RCC_GetSysClockFreq+0x3e>
 8001efe:	d85c      	bhi.n	8001fba <HAL_RCC_GetSysClockFreq+0xd2>
 8001f00:	2b04      	cmp	r3, #4
 8001f02:	d002      	beq.n	8001f0a <HAL_RCC_GetSysClockFreq+0x22>
 8001f04:	2b08      	cmp	r3, #8
 8001f06:	d00b      	beq.n	8001f20 <HAL_RCC_GetSysClockFreq+0x38>
 8001f08:	e057      	b.n	8001fba <HAL_RCC_GetSysClockFreq+0xd2>
  {
    case RCC_SYSCLKSOURCE_STATUS_HSI:  /* HSI used as system clock source */
    {
      if ((RCC->CR & RCC_CR_HSIDIVF) != 0U)
 8001f0a:	4b35      	ldr	r3, [pc, #212]	@ (8001fe0 <HAL_RCC_GetSysClockFreq+0xf8>)
 8001f0c:	681b      	ldr	r3, [r3, #0]
 8001f0e:	2210      	movs	r2, #16
 8001f10:	4013      	ands	r3, r2
 8001f12:	d002      	beq.n	8001f1a <HAL_RCC_GetSysClockFreq+0x32>
      {
        sysclockfreq =  (HSI_VALUE >> 2);
 8001f14:	4b33      	ldr	r3, [pc, #204]	@ (8001fe4 <HAL_RCC_GetSysClockFreq+0xfc>)
 8001f16:	613b      	str	r3, [r7, #16]
      }
      else
      {
        sysclockfreq =  HSI_VALUE;
      }
      break;
 8001f18:	e05d      	b.n	8001fd6 <HAL_RCC_GetSysClockFreq+0xee>
        sysclockfreq =  HSI_VALUE;
 8001f1a:	4b33      	ldr	r3, [pc, #204]	@ (8001fe8 <HAL_RCC_GetSysClockFreq+0x100>)
 8001f1c:	613b      	str	r3, [r7, #16]
      break;
 8001f1e:	e05a      	b.n	8001fd6 <HAL_RCC_GetSysClockFreq+0xee>
    }
    case RCC_SYSCLKSOURCE_STATUS_HSE:  /* HSE used as system clock */
    {
      sysclockfreq = HSE_VALUE;
 8001f20:	4b32      	ldr	r3, [pc, #200]	@ (8001fec <HAL_RCC_GetSysClockFreq+0x104>)
 8001f22:	613b      	str	r3, [r7, #16]
      break;
 8001f24:	e057      	b.n	8001fd6 <HAL_RCC_GetSysClockFreq+0xee>
    }
    case RCC_SYSCLKSOURCE_STATUS_PLLCLK:  /* PLL used as system clock */
    {
      pllm = PLLMulTable[(uint32_t)(tmpreg & RCC_CFGR_PLLMUL) >> RCC_CFGR_PLLMUL_Pos];
 8001f26:	68fb      	ldr	r3, [r7, #12]
 8001f28:	0c9b      	lsrs	r3, r3, #18
 8001f2a:	220f      	movs	r2, #15
 8001f2c:	4013      	ands	r3, r2
 8001f2e:	4a30      	ldr	r2, [pc, #192]	@ (8001ff0 <HAL_RCC_GetSysClockFreq+0x108>)
 8001f30:	5cd3      	ldrb	r3, [r2, r3]
 8001f32:	60bb      	str	r3, [r7, #8]
      plld = ((uint32_t)(tmpreg & RCC_CFGR_PLLDIV) >> RCC_CFGR_PLLDIV_Pos) + 1U;
 8001f34:	68fb      	ldr	r3, [r7, #12]
 8001f36:	0d9b      	lsrs	r3, r3, #22
 8001f38:	2203      	movs	r2, #3
 8001f3a:	4013      	ands	r3, r2
 8001f3c:	3301      	adds	r3, #1
 8001f3e:	607b      	str	r3, [r7, #4]
      if (__HAL_RCC_GET_PLL_OSCSOURCE() != RCC_PLLSOURCE_HSI)
 8001f40:	4b27      	ldr	r3, [pc, #156]	@ (8001fe0 <HAL_RCC_GetSysClockFreq+0xf8>)
 8001f42:	68da      	ldr	r2, [r3, #12]
 8001f44:	2380      	movs	r3, #128	@ 0x80
 8001f46:	025b      	lsls	r3, r3, #9
 8001f48:	4013      	ands	r3, r2
 8001f4a:	d00f      	beq.n	8001f6c <HAL_RCC_GetSysClockFreq+0x84>
      {
        /* HSE used as PLL clock source */
        pllvco = (uint32_t)((HSE_VALUE * pllm) / plld);
 8001f4c:	68b9      	ldr	r1, [r7, #8]
 8001f4e:	000a      	movs	r2, r1
 8001f50:	0152      	lsls	r2, r2, #5
 8001f52:	1a52      	subs	r2, r2, r1
 8001f54:	0193      	lsls	r3, r2, #6
 8001f56:	1a9b      	subs	r3, r3, r2
 8001f58:	00db      	lsls	r3, r3, #3
 8001f5a:	185b      	adds	r3, r3, r1
 8001f5c:	025b      	lsls	r3, r3, #9
 8001f5e:	6879      	ldr	r1, [r7, #4]
 8001f60:	0018      	movs	r0, r3
 8001f62:	f7fe f8d1 	bl	8000108 <__udivsi3>
 8001f66:	0003      	movs	r3, r0
 8001f68:	617b      	str	r3, [r7, #20]
 8001f6a:	e023      	b.n	8001fb4 <HAL_RCC_GetSysClockFreq+0xcc>
      }
      else
      {
        if ((RCC->CR & RCC_CR_HSIDIVF) != 0U)
 8001f6c:	4b1c      	ldr	r3, [pc, #112]	@ (8001fe0 <HAL_RCC_GetSysClockFreq+0xf8>)
 8001f6e:	681b      	ldr	r3, [r3, #0]
 8001f70:	2210      	movs	r2, #16
 8001f72:	4013      	ands	r3, r2
 8001f74:	d00f      	beq.n	8001f96 <HAL_RCC_GetSysClockFreq+0xae>
        {
          pllvco = (uint32_t)((((HSI_VALUE >> 2)) * pllm) / plld);
 8001f76:	68b9      	ldr	r1, [r7, #8]
 8001f78:	000a      	movs	r2, r1
 8001f7a:	0152      	lsls	r2, r2, #5
 8001f7c:	1a52      	subs	r2, r2, r1
 8001f7e:	0193      	lsls	r3, r2, #6
 8001f80:	1a9b      	subs	r3, r3, r2
 8001f82:	00db      	lsls	r3, r3, #3
 8001f84:	185b      	adds	r3, r3, r1
 8001f86:	021b      	lsls	r3, r3, #8
 8001f88:	6879      	ldr	r1, [r7, #4]
 8001f8a:	0018      	movs	r0, r3
 8001f8c:	f7fe f8bc 	bl	8000108 <__udivsi3>
 8001f90:	0003      	movs	r3, r0
 8001f92:	617b      	str	r3, [r7, #20]
 8001f94:	e00e      	b.n	8001fb4 <HAL_RCC_GetSysClockFreq+0xcc>
        }
        else
        {
         pllvco = (uint32_t)((HSI_VALUE * pllm) / plld);
 8001f96:	68b9      	ldr	r1, [r7, #8]
 8001f98:	000a      	movs	r2, r1
 8001f9a:	0152      	lsls	r2, r2, #5
 8001f9c:	1a52      	subs	r2, r2, r1
 8001f9e:	0193      	lsls	r3, r2, #6
 8001fa0:	1a9b      	subs	r3, r3, r2
 8001fa2:	00db      	lsls	r3, r3, #3
 8001fa4:	185b      	adds	r3, r3, r1
 8001fa6:	029b      	lsls	r3, r3, #10
 8001fa8:	6879      	ldr	r1, [r7, #4]
 8001faa:	0018      	movs	r0, r3
 8001fac:	f7fe f8ac 	bl	8000108 <__udivsi3>
 8001fb0:	0003      	movs	r3, r0
 8001fb2:	617b      	str	r3, [r7, #20]
        }
      }
      sysclockfreq = pllvco;
 8001fb4:	697b      	ldr	r3, [r7, #20]
 8001fb6:	613b      	str	r3, [r7, #16]
      break;
 8001fb8:	e00d      	b.n	8001fd6 <HAL_RCC_GetSysClockFreq+0xee>
    }
    case RCC_SYSCLKSOURCE_STATUS_MSI:  /* MSI used as system clock source */
    default: /* MSI used as system clock */
    {
      msiclkrange = (RCC->ICSCR & RCC_ICSCR_MSIRANGE ) >> RCC_ICSCR_MSIRANGE_Pos;
 8001fba:	4b09      	ldr	r3, [pc, #36]	@ (8001fe0 <HAL_RCC_GetSysClockFreq+0xf8>)
 8001fbc:	685b      	ldr	r3, [r3, #4]
 8001fbe:	0b5b      	lsrs	r3, r3, #13
 8001fc0:	2207      	movs	r2, #7
 8001fc2:	4013      	ands	r3, r2
 8001fc4:	603b      	str	r3, [r7, #0]
      sysclockfreq = (32768U * (1UL << (msiclkrange + 1U)));
 8001fc6:	683b      	ldr	r3, [r7, #0]
 8001fc8:	3301      	adds	r3, #1
 8001fca:	2280      	movs	r2, #128	@ 0x80
 8001fcc:	0212      	lsls	r2, r2, #8
 8001fce:	409a      	lsls	r2, r3
 8001fd0:	0013      	movs	r3, r2
 8001fd2:	613b      	str	r3, [r7, #16]
      break;
 8001fd4:	46c0      	nop			@ (mov r8, r8)
    }
  }
  return sysclockfreq;
 8001fd6:	693b      	ldr	r3, [r7, #16]
}
 8001fd8:	0018      	movs	r0, r3
 8001fda:	46bd      	mov	sp, r7
 8001fdc:	b006      	add	sp, #24
 8001fde:	bd80      	pop	{r7, pc}
 8001fe0:	40021000 	.word	0x40021000
 8001fe4:	003d0900 	.word	0x003d0900
 8001fe8:	00f42400 	.word	0x00f42400
 8001fec:	007a1200 	.word	0x007a1200
 8001ff0:	08002074 	.word	0x08002074

08001ff4 <memset>:
 8001ff4:	0003      	movs	r3, r0
 8001ff6:	1882      	adds	r2, r0, r2
 8001ff8:	4293      	cmp	r3, r2
 8001ffa:	d100      	bne.n	8001ffe <memset+0xa>
 8001ffc:	4770      	bx	lr
 8001ffe:	7019      	strb	r1, [r3, #0]
 8002000:	3301      	adds	r3, #1
 8002002:	e7f9      	b.n	8001ff8 <memset+0x4>

08002004 <__libc_init_array>:
 8002004:	b570      	push	{r4, r5, r6, lr}
 8002006:	2600      	movs	r6, #0
 8002008:	4c0c      	ldr	r4, [pc, #48]	@ (800203c <__libc_init_array+0x38>)
 800200a:	4d0d      	ldr	r5, [pc, #52]	@ (8002040 <__libc_init_array+0x3c>)
 800200c:	1b64      	subs	r4, r4, r5
 800200e:	10a4      	asrs	r4, r4, #2
 8002010:	42a6      	cmp	r6, r4
 8002012:	d109      	bne.n	8002028 <__libc_init_array+0x24>
 8002014:	2600      	movs	r6, #0
 8002016:	f000 f819 	bl	800204c <_init>
 800201a:	4c0a      	ldr	r4, [pc, #40]	@ (8002044 <__libc_init_array+0x40>)
 800201c:	4d0a      	ldr	r5, [pc, #40]	@ (8002048 <__libc_init_array+0x44>)
 800201e:	1b64      	subs	r4, r4, r5
 8002020:	10a4      	asrs	r4, r4, #2
 8002022:	42a6      	cmp	r6, r4
 8002024:	d105      	bne.n	8002032 <__libc_init_array+0x2e>
 8002026:	bd70      	pop	{r4, r5, r6, pc}
 8002028:	00b3      	lsls	r3, r6, #2
 800202a:	58eb      	ldr	r3, [r5, r3]
 800202c:	4798      	blx	r3
 800202e:	3601      	adds	r6, #1
 8002030:	e7ee      	b.n	8002010 <__libc_init_array+0xc>
 8002032:	00b3      	lsls	r3, r6, #2
 8002034:	58eb      	ldr	r3, [r5, r3]
 8002036:	4798      	blx	r3
 8002038:	3601      	adds	r6, #1
 800203a:	e7f2      	b.n	8002022 <__libc_init_array+0x1e>
 800203c:	08002080 	.word	0x08002080
 8002040:	08002080 	.word	0x08002080
 8002044:	08002084 	.word	0x08002084
 8002048:	08002080 	.word	0x08002080

0800204c <_init>:
 800204c:	b5f8      	push	{r3, r4, r5, r6, r7, lr}
 800204e:	46c0      	nop			@ (mov r8, r8)
 8002050:	bcf8      	pop	{r3, r4, r5, r6, r7}
 8002052:	bc08      	pop	{r3}
 8002054:	469e      	mov	lr, r3
 8002056:	4770      	bx	lr

08002058 <_fini>:
 8002058:	b5f8      	push	{r3, r4, r5, r6, r7, lr}
 800205a:	46c0      	nop			@ (mov r8, r8)
 800205c:	bcf8      	pop	{r3, r4, r5, r6, r7}
 800205e:	bc08      	pop	{r3}
 8002060:	469e      	mov	lr, r3
 8002062:	4770      	bx	lr
